ccopy_reg
_reconstructor
p1
(cmatplotlib.font_manager
FontManager
p2
c__builtin__
object
p3
NtRp4
(dp5
S'ttflist'
p6
(lp7
g1
(cmatplotlib.font_manager
FontEntry
p8
g3
NtRp9
(dp10
S'style'
p11
Vnormal
p12
sS'name'
p13
Vcmsy10
p14
sS'weight'
p15
I400
sS'stretch'
p16
g12
sS'variant'
p17
g12
sS'fname'
p18
V/Users/atsuya/.pyenv/versions/anaconda2-4.2.0/lib/python2.7/site-packages/matplotlib/mpl-data/fonts/ttf/cmsy10.ttf
p19
sS'size'
p20
Vscalable
p21
sbag1
(g8
g3
NtRp22
(dp23
g11
g12
sg13
Vcmex10
p24
sg15
I400
sg16
g12
sg17
g12
sg18
V/Users/atsuya/.pyenv/versions/anaconda2-4.2.0/lib/python2.7/site-packages/matplotlib/mpl-data/fonts/ttf/cmex10.ttf
p25
sg20
g21
sbag1
(g8
g3
NtRp26
(dp27
g11
g12
sg13
VBitstream Vera Sans Mono
p28
sg15
I400
sg16
g12
sg17
g12
sg18
V/Users/atsuya/.pyenv/versions/anaconda2-4.2.0/lib/python2.7/site-packages/matplotlib/mpl-data/fonts/ttf/VeraMono.ttf
p29
sg20
g21
sbag1
(g8
g3
NtRp30
(dp31
g11
g12
sg13
Vcmtt10
p32
sg15
I400
sg16
g12
sg17
g12
sg18
V/Users/atsuya/.pyenv/versions/anaconda2-4.2.0/lib/python2.7/site-packages/matplotlib/mpl-data/fonts/ttf/cmtt10.ttf
p33
sg20
g21
sbag1
(g8
g3
NtRp34
(dp35
g11
g12
sg13
VSTIXSizeOneSym
p36
sg15
I700
sg16
g12
sg17
g12
sg18
V/Users/atsuya/.pyenv/versions/anaconda2-4.2.0/lib/python2.7/site-packages/matplotlib/mpl-data/fonts/ttf/STIXSizOneSymBol.ttf
p37
sg20
g21
sbag1
(g8
g3
NtRp38
(dp39
g11
g12
sg13
Vcmr10
p40
sg15
I400
sg16
g12
sg17
g12
sg18
V/Users/atsuya/.pyenv/versions/anaconda2-4.2.0/lib/python2.7/site-packages/matplotlib/mpl-data/fonts/ttf/cmr10.ttf
p41
sg20
g21
sbag1
(g8
g3
NtRp42
(dp43
g11
g12
sg13
VSTIXNonUnicode
p44
sg15
I400
sg16
g12
sg17
g12
sg18
V/Users/atsuya/.pyenv/versions/anaconda2-4.2.0/lib/python2.7/site-packages/matplotlib/mpl-data/fonts/ttf/STIXNonUni.ttf
p45
sg20
g21
sbag1
(g8
g3
NtRp46
(dp47
g11
g12
sg13
Vcmb10
p48
sg15
I400
sg16
g12
sg17
g12
sg18
V/Users/atsuya/.pyenv/versions/anaconda2-4.2.0/lib/python2.7/site-packages/matplotlib/mpl-data/fonts/ttf/cmb10.ttf
p49
sg20
g21
sbag1
(g8
g3
NtRp50
(dp51
g11
g12
sg13
Vcmmi10
p52
sg15
I400
sg16
g12
sg17
g12
sg18
V/Users/atsuya/.pyenv/versions/anaconda2-4.2.0/lib/python2.7/site-packages/matplotlib/mpl-data/fonts/ttf/cmmi10.ttf
p53
sg20
g21
sbag1
(g8
g3
NtRp54
(dp55
g11
g12
sg13
VSTIXSizeFourSym
p56
sg15
I400
sg16
g12
sg17
g12
sg18
V/Users/atsuya/.pyenv/versions/anaconda2-4.2.0/lib/python2.7/site-packages/matplotlib/mpl-data/fonts/ttf/STIXSizFourSymReg.ttf
p57
sg20
g21
sbag1
(g8
g3
NtRp58
(dp59
g11
g12
sg13
VSTIXSizeFiveSym
p60
sg15
I400
sg16
g12
sg17
g12
sg18
V/Users/atsuya/.pyenv/versions/anaconda2-4.2.0/lib/python2.7/site-packages/matplotlib/mpl-data/fonts/ttf/STIXSizFiveSymReg.ttf
p61
sg20
g21
sbag1
(g8
g3
NtRp62
(dp63
g11
g12
sg13
Vcmss10
p64
sg15
I400
sg16
g12
sg17
g12
sg18
V/Users/atsuya/.pyenv/versions/anaconda2-4.2.0/lib/python2.7/site-packages/matplotlib/mpl-data/fonts/ttf/cmss10.ttf
p65
sg20
g21
sbag1
(g8
g3
NtRp66
(dp67
g11
g12
sg13
VSTIXSizeThreeSym
p68
sg15
I400
sg16
g12
sg17
g12
sg18
V/Users/atsuya/.pyenv/versions/anaconda2-4.2.0/lib/python2.7/site-packages/matplotlib/mpl-data/fonts/ttf/STIXSizThreeSymReg.ttf
p69
sg20
g21
sbag1
(g8
g3
NtRp70
(dp71
g11
g12
sg13
VSTIXGeneral
p72
sg15
I700
sg16
g12
sg17
g12
sg18
V/Users/atsuya/.pyenv/versions/anaconda2-4.2.0/lib/python2.7/site-packages/matplotlib/mpl-data/fonts/ttf/STIXGeneralBol.ttf
p73
sg20
g21
sbag1
(g8
g3
NtRp74
(dp75
g11
g12
sg13
VSTIXSizeThreeSym
p76
sg15
I700
sg16
g12
sg17
g12
sg18
V/Users/atsuya/.pyenv/versions/anaconda2-4.2.0/lib/python2.7/site-packages/matplotlib/mpl-data/fonts/ttf/STIXSizThreeSymBol.ttf
p77
sg20
g21
sbag1
(g8
g3
NtRp78
(dp79
g11
g12
sg13
VSTIXNonUnicode
p80
sg15
I700
sg16
g12
sg17
g12
sg18
V/Users/atsuya/.pyenv/versions/anaconda2-4.2.0/lib/python2.7/site-packages/matplotlib/mpl-data/fonts/ttf/STIXNonUniBol.ttf
p81
sg20
g21
sbag1
(g8
g3
NtRp82
(dp83
g11
g12
sg13
VBitstream Vera Sans
p84
sg15
I700
sg16
g12
sg17
g12
sg18
V/Users/atsuya/.pyenv/versions/anaconda2-4.2.0/lib/python2.7/site-packages/matplotlib/mpl-data/fonts/ttf/VeraBd.ttf
p85
sg20
g21
sbag1
(g8
g3
NtRp86
(dp87
g11
Voblique
p88
sg13
VBitstream Vera Sans Mono
p89
sg15
I700
sg16
g12
sg17
g12
sg18
V/Users/atsuya/.pyenv/versions/anaconda2-4.2.0/lib/python2.7/site-packages/matplotlib/mpl-data/fonts/ttf/VeraMoBI.ttf
p90
sg20
g21
sbag1
(g8
g3
NtRp91
(dp92
g11
Vitalic
p93
sg13
VSTIXGeneral
p94
sg15
I700
sg16
g12
sg17
g12
sg18
V/Users/atsuya/.pyenv/versions/anaconda2-4.2.0/lib/python2.7/site-packages/matplotlib/mpl-data/fonts/ttf/STIXGeneralBolIta.ttf
p95
sg20
g21
sbag1
(g8
g3
NtRp96
(dp97
g11
g93
sg13
VSTIXNonUnicode
p98
sg15
I400
sg16
g12
sg17
g12
sg18
V/Users/atsuya/.pyenv/versions/anaconda2-4.2.0/lib/python2.7/site-packages/matplotlib/mpl-data/fonts/ttf/STIXNonUniIta.ttf
p99
sg20
g21
sbag1
(g8
g3
NtRp100
(dp101
g11
g12
sg13
VSTIXSizeTwoSym
p102
sg15
I400
sg16
g12
sg17
g12
sg18
V/Users/atsuya/.pyenv/versions/anaconda2-4.2.0/lib/python2.7/site-packages/matplotlib/mpl-data/fonts/ttf/STIXSizTwoSymReg.ttf
p103
sg20
g21
sbag1
(g8
g3
NtRp104
(dp105
g11
g12
sg13
VBitstream Vera Sans
p106
sg15
I400
sg16
g12
sg17
g12
sg18
V/Users/atsuya/.pyenv/versions/anaconda2-4.2.0/lib/python2.7/site-packages/matplotlib/mpl-data/fonts/ttf/Vera.ttf
p107
sg20
g21
sbag1
(g8
g3
NtRp108
(dp109
g11
g12
sg13
VSTIXSizeFourSym
p110
sg15
I700
sg16
g12
sg17
g12
sg18
V/Users/atsuya/.pyenv/versions/anaconda2-4.2.0/lib/python2.7/site-packages/matplotlib/mpl-data/fonts/ttf/STIXSizFourSymBol.ttf
p111
sg20
g21
sbag1
(g8
g3
NtRp112
(dp113
g11
g12
sg13
VBitstream Vera Serif
p114
sg15
I700
sg16
g12
sg17
g12
sg18
V/Users/atsuya/.pyenv/versions/anaconda2-4.2.0/lib/python2.7/site-packages/matplotlib/mpl-data/fonts/ttf/VeraSeBd.ttf
p115
sg20
g21
sbag1
(g8
g3
NtRp116
(dp117
g11
g88
sg13
VBitstream Vera Sans
p118
sg15
I400
sg16
g12
sg17
g12
sg18
V/Users/atsuya/.pyenv/versions/anaconda2-4.2.0/lib/python2.7/site-packages/matplotlib/mpl-data/fonts/ttf/VeraIt.ttf
p119
sg20
g21
sbag1
(g8
g3
NtRp120
(dp121
g11
g12
sg13
VBitstream Vera Serif
p122
sg15
I400
sg16
g12
sg17
g12
sg18
V/Users/atsuya/.pyenv/versions/anaconda2-4.2.0/lib/python2.7/site-packages/matplotlib/mpl-data/fonts/ttf/VeraSe.ttf
p123
sg20
g21
sbag1
(g8
g3
NtRp124
(dp125
g11
g12
sg13
VSTIXGeneral
p126
sg15
I400
sg16
g12
sg17
g12
sg18
V/Users/atsuya/.pyenv/versions/anaconda2-4.2.0/lib/python2.7/site-packages/matplotlib/mpl-data/fonts/ttf/STIXGeneral.ttf
p127
sg20
g21
sbag1
(g8
g3
NtRp128
(dp129
g11
g93
sg13
VSTIXNonUnicode
p130
sg15
I700
sg16
g12
sg17
g12
sg18
V/Users/atsuya/.pyenv/versions/anaconda2-4.2.0/lib/python2.7/site-packages/matplotlib/mpl-data/fonts/ttf/STIXNonUniBolIta.ttf
p131
sg20
g21
sbag1
(g8
g3
NtRp132
(dp133
g11
g12
sg13
VSTIXSizeOneSym
p134
sg15
I400
sg16
g12
sg17
g12
sg18
V/Users/atsuya/.pyenv/versions/anaconda2-4.2.0/lib/python2.7/site-packages/matplotlib/mpl-data/fonts/ttf/STIXSizOneSymReg.ttf
p135
sg20
g21
sbag1
(g8
g3
NtRp136
(dp137
g11
g88
sg13
VBitstream Vera Sans
p138
sg15
I700
sg16
g12
sg17
g12
sg18
V/Users/atsuya/.pyenv/versions/anaconda2-4.2.0/lib/python2.7/site-packages/matplotlib/mpl-data/fonts/ttf/VeraBI.ttf
p139
sg20
g21
sbag1
(g8
g3
NtRp140
(dp141
g11
g88
sg13
VBitstream Vera Sans Mono
p142
sg15
I400
sg16
g12
sg17
g12
sg18
V/Users/atsuya/.pyenv/versions/anaconda2-4.2.0/lib/python2.7/site-packages/matplotlib/mpl-data/fonts/ttf/VeraMoIt.ttf
p143
sg20
g21
sbag1
(g8
g3
NtRp144
(dp145
g11
g12
sg13
VBitstream Vera Sans Mono
p146
sg15
I700
sg16
g12
sg17
g12
sg18
V/Users/atsuya/.pyenv/versions/anaconda2-4.2.0/lib/python2.7/site-packages/matplotlib/mpl-data/fonts/ttf/VeraMoBd.ttf
p147
sg20
g21
sbag1
(g8
g3
NtRp148
(dp149
g11
g12
sg13
VSTIXSizeTwoSym
p150
sg15
I700
sg16
g12
sg17
g12
sg18
V/Users/atsuya/.pyenv/versions/anaconda2-4.2.0/lib/python2.7/site-packages/matplotlib/mpl-data/fonts/ttf/STIXSizTwoSymBol.ttf
p151
sg20
g21
sbag1
(g8
g3
NtRp152
(dp153
g11
g93
sg13
VSTIXGeneral
p154
sg15
I400
sg16
g12
sg17
g12
sg18
V/Users/atsuya/.pyenv/versions/anaconda2-4.2.0/lib/python2.7/site-packages/matplotlib/mpl-data/fonts/ttf/STIXGeneralItalic.ttf
p155
sg20
g21
sbag1
(g8
g3
NtRp156
(dp157
g11
g93
sg13
VTrebuchet MS
p158
sg15
I400
sg16
g12
sg17
g12
sg18
V/Library/Fonts/Trebuchet MS Italic.ttf
p159
sg20
g21
sbag1
(g8
g3
NtRp160
(dp161
g11
g12
sg13
VTimes New Roman
p162
sg15
I500
sg16
g12
sg17
g12
sg18
V/Library/Fonts/Times New Roman.ttf
p163
sg20
g21
sbag1
(g8
g3
NtRp164
(dp165
g11
g93
sg13
VNoto Serif
p166
sg15
I400
sg16
g12
sg17
g12
sg18
V/Users/atsuya/Library/Fonts/NotoSerif-SemiCondensedExtraBoldItalic.ttf
p167
sg20
g21
sbag1
(g8
g3
NtRp168
(dp169
g11
g12
sg13
VNoto Serif
p170
sg15
I400
sg16
g12
sg17
g12
sg18
V/Users/atsuya/Library/Fonts/NotoSerif-SemiCondensedBlack.ttf
p171
sg20
g21
sbag1
(g8
g3
NtRp172
(dp173
g11
g93
sg13
VNoto Sans
p174
sg15
I400
sg16
g12
sg17
g12
sg18
V/Users/atsuya/Library/Fonts/NotoSans-SemiCondensedExtraBoldItalic.ttf
p175
sg20
g21
sbag1
(g8
g3
NtRp176
(dp177
g11
g12
sg13
VSystem Font
p178
sg15
I400
sg16
g12
sg17
g12
sg18
V/System/Library/Fonts/SFNSDisplay-BoldItalic.otf
p179
sg20
g21
sbag1
(g8
g3
NtRp180
(dp181
g11
g93
sg13
VNoto Sans
p182
sg15
I400
sg16
g12
sg17
g12
sg18
V/Users/atsuya/Library/Fonts/NotoSans-SemiCondensedSemiBoldItalic.ttf
p183
sg20
g21
sbag1
(g8
g3
NtRp184
(dp185
g11
g93
sg13
VNoto Serif
p186
sg15
I400
sg16
g12
sg17
g12
sg18
V/Users/atsuya/Library/Fonts/NotoSerif-ExtraLightItalic.ttf
p187
sg20
g21
sbag1
(g8
g3
NtRp188
(dp189
g11
g12
sg13
VSTIXNonUnicode
p190
sg15
I700
sg16
g12
sg17
g12
sg18
V/Library/Fonts/STIXNonUniBol.otf
p191
sg20
g21
sbag1
(g8
g3
NtRp192
(dp193
g11
g12
sg13
V.SF Compact Rounded
p194
sg15
I400
sg16
g12
sg17
g12
sg18
V/System/Library/Fonts/SFCompactRounded-Ultralight.otf
p195
sg20
g21
sbag1
(g8
g3
NtRp196
(dp197
g11
g12
sg13
VAppleMyungjo
p198
sg15
I400
sg16
g12
sg17
g12
sg18
V/Library/Fonts/AppleMyungjo.ttf
p199
sg20
g21
sbag1
(g8
g3
NtRp200
(dp201
g11
g12
sg13
VMishafi Gold
p202
sg15
I400
sg16
g12
sg17
g12
sg18
V/Library/Fonts/Mishafi Gold.ttf
p203
sg20
g21
sbag1
(g8
g3
NtRp204
(dp205
g11
g12
sg13
VKH Dot Hibiya 32
p206
sg15
I400
sg16
g12
sg17
g12
sg18
V/Users/atsuya/Library/Fonts/KH-Dot-Hibiya-32.ttf
p207
sg20
g21
sbag1
(g8
g3
NtRp208
(dp209
g11
g12
sg13
VSTIXSizeThreeSym
p210
sg15
I700
sg16
g12
sg17
g12
sg18
V/Library/Fonts/STIXSizThreeSymBol.otf
p211
sg20
g21
sbag1
(g8
g3
NtRp212
(dp213
g11
g12
sg13
VTrick
p214
sg15
I400
sg16
g12
sg17
g12
sg18
V/Users/atsuya/Library/Fonts/Trick-Regular.otf
p215
sg20
g21
sbag1
(g8
g3
NtRp216
(dp217
g11
g93
sg13
VNoto Sans
p218
sg15
I400
sg16
g12
sg17
g12
sg18
V/Users/atsuya/Library/Fonts/NotoSans-CondensedSemiBoldItalic.ttf
p219
sg20
g21
sbag1
(g8
g3
NtRp220
(dp221
g11
g12
sg13
VNoto Serif
p222
sg15
I400
sg16
g12
sg17
g12
sg18
V/Users/atsuya/Library/Fonts/NotoSerif-ExtraCondensedExtraLight.ttf
p223
sg20
g21
sbag1
(g8
g3
NtRp224
(dp225
g11
g12
sg13
VNoto Sans
p226
sg15
I400
sg16
g12
sg17
g12
sg18
V/Users/atsuya/Library/Fonts/NotoSans-Black.ttf
p227
sg20
g21
sbag1
(g8
g3
NtRp228
(dp229
g11
g12
sg13
VSystem Font
p230
sg15
I400
sg16
g12
sg17
g12
sg18
V/System/Library/Fonts/SFNSDisplay-SemiboldItalic.otf
p231
sg20
g21
sbag1
(g8
g3
NtRp232
(dp233
g11
g12
sg13
VKH Dot Kodenmachou 16 Ki
p234
sg15
I400
sg16
g12
sg17
g12
sg18
V/Users/atsuya/Library/Fonts/KH-Dot-Kodenmachou-16-Ki.ttf
p235
sg20
g21
sbag1
(g8
g3
NtRp236
(dp237
g11
g12
sg13
VSystem Font
p238
sg15
I400
sg16
g12
sg17
g12
sg18
V/System/Library/Fonts/SFNSDisplay-RegularItalic.otf
p239
sg20
g21
sbag1
(g8
g3
NtRp240
(dp241
g11
g12
sg13
V.SF Compact Rounded
p242
sg15
I400
sg16
g12
sg17
g12
sg18
V/System/Library/Fonts/SFCompactRounded-Light.otf
p243
sg20
g21
sbag1
(g8
g3
NtRp244
(dp245
g11
g12
sg13
V03SmartFontUI
p246
sg15
I400
sg16
g12
sg17
g12
sg18
V/Users/atsuya/Library/Fonts/03\u30b9\u30de\u30fc\u30c8\u30d5\u30a9\u30f3\u30c8UI.otf
p247
sg20
g21
sbag1
(g8
g3
NtRp248
(dp249
g11
g12
sg13
VNoto Serif
p250
sg15
I400
sg16
g12
sg17
g12
sg18
V/Users/atsuya/Library/Fonts/NotoSerif-Light.ttf
p251
sg20
g21
sbag1
(g8
g3
NtRp252
(dp253
g11
g12
sg13
VNoto Sans
p254
sg15
I400
sg16
g12
sg17
g12
sg18
V/Users/atsuya/Library/Fonts/NotoSans-ExtraCondensedMedium.ttf
p255
sg20
g21
sbag1
(g8
g3
NtRp256
(dp257
g11
g12
sg13
VNoto Serif
p258
sg15
I400
sg16
g12
sg17
g12
sg18
V/Users/atsuya/Library/Fonts/NotoSerif-CondensedMedium.ttf
p259
sg20
g21
sbag1
(g8
g3
NtRp260
(dp261
g11
g93
sg13
VArial
p262
sg15
I700
sg16
g12
sg17
g12
sg18
V/Library/Fonts/Arial Bold Italic.ttf
p263
sg20
g21
sbag1
(g8
g3
NtRp264
(dp265
g11
g93
sg13
VNoto Sans
p266
sg15
I400
sg16
g12
sg17
g12
sg18
V/Users/atsuya/Library/Fonts/NotoSans-SemiCondensedLightItalic.ttf
p267
sg20
g21
sbag1
(g8
g3
NtRp268
(dp269
g11
g12
sg13
VNoto Sans
p270
sg15
I400
sg16
g12
sg17
g12
sg18
V/Users/atsuya/Library/Fonts/NotoSans-ExtraLight.ttf
p271
sg20
g21
sbag1
(g8
g3
NtRp272
(dp273
g11
g12
sg13
VNoto Serif
p274
sg15
I400
sg16
g12
sg17
g12
sg18
V/Users/atsuya/Library/Fonts/NotoSerif-ExtraBold.ttf
p275
sg20
g21
sbag1
(g8
g3
NtRp276
(dp277
g11
g12
sg13
VAarcover
p278
sg15
I500
sg16
g12
sg17
g12
sg18
V/Users/atsuya/Library/Fonts/Aarcover-Medium.ttf
p279
sg20
g21
sbag1
(g8
g3
NtRp280
(dp281
g11
g12
sg13
VSTIXSizeFiveSym
p282
sg15
I400
sg16
g12
sg17
g12
sg18
V/Library/Fonts/STIXSizFiveSymReg.otf
p283
sg20
g21
sbag1
(g8
g3
NtRp284
(dp285
g11
g93
sg13
VNoto Sans
p286
sg15
I400
sg16
g12
sg17
g12
sg18
V/Users/atsuya/Library/Fonts/NotoSans-SemiBoldItalic.ttf
p287
sg20
g21
sbag1
(g8
g3
NtRp288
(dp289
g11
g93
sg13
VNoto Serif
p290
sg15
I400
sg16
g12
sg17
g12
sg18
V/Users/atsuya/Library/Fonts/NotoSerif-ExtraCondensedExtraLightItalic.ttf
p291
sg20
g21
sbag1
(g8
g3
NtRp292
(dp293
g11
g12
sg13
VGurmukhi MT
p294
sg15
I400
sg16
g12
sg17
g12
sg18
V/Library/Fonts/Gurmukhi.ttf
p295
sg20
g21
sbag1
(g8
g3
NtRp296
(dp297
g11
g12
sg13
VNoto Sans
p298
sg15
I400
sg16
g12
sg17
g12
sg18
V/Users/atsuya/Library/Fonts/NotoSans-Condensed.ttf
p299
sg20
g21
sbag1
(g8
g3
NtRp300
(dp301
g11
g93
sg13
VNoto Sans
p302
sg15
I400
sg16
g12
sg17
g12
sg18
V/Users/atsuya/Library/Fonts/NotoSans-SemiCondensedMediumItalic.ttf
p303
sg20
g21
sbag1
(g8
g3
NtRp304
(dp305
g11
g93
sg13
VNoto Serif
p306
sg15
I400
sg16
g12
sg17
g12
sg18
V/Users/atsuya/Library/Fonts/NotoSerif-SemiBoldItalic.ttf
p307
sg20
g21
sbag1
(g8
g3
NtRp308
(dp309
g11
g12
sg13
VCP Font
p310
sg15
I400
sg16
g12
sg17
g12
sg18
V/Users/atsuya/Library/Fonts/CP Font.ttf
p311
sg20
g21
sbag1
(g8
g3
NtRp312
(dp313
g11
g93
sg13
VNoto Serif
p314
sg15
I400
sg16
g12
sg17
g12
sg18
V/Users/atsuya/Library/Fonts/NotoSerif-ExtraCondensedThinItalic.ttf
p315
sg20
g21
sbag1
(g8
g3
NtRp316
(dp317
g11
g12
sg13
VGD-HighwayGothicJA-TTF
p318
sg15
I400
sg16
g12
sg17
g12
sg18
V/Users/atsuya/Library/Fonts/GDhwGoJA-TTF108b.ttf
p319
sg20
g21
sbag1
(g8
g3
NtRp320
(dp321
g11
g12
sg13
VKH Dot Kodenmachou 16
p322
sg15
I400
sg16
g12
sg17
g12
sg18
V/Users/atsuya/Library/Fonts/KH-Dot-Kodenmachou-16.ttf
p323
sg20
g21
sbag1
(g8
g3
NtRp324
(dp325
g11
g93
sg13
VNoto Serif
p326
sg15
I400
sg16
g12
sg17
g12
sg18
V/Users/atsuya/Library/Fonts/NotoSerif-BlackItalic.ttf
p327
sg20
g21
sbag1
(g8
g3
NtRp328
(dp329
g11
g93
sg13
VVerdana
p330
sg15
I700
sg16
g12
sg17
g12
sg18
V/Library/Fonts/Verdana Bold Italic.ttf
p331
sg20
g21
sbag1
(g8
g3
NtRp332
(dp333
g11
g12
sg13
VSTIXSizeOneSym
p334
sg15
I400
sg16
g12
sg17
g12
sg18
V/Library/Fonts/STIXSizOneSymReg.otf
p335
sg20
g21
sbag1
(g8
g3
NtRp336
(dp337
g11
g12
sg13
V.SF NS Display Condensed
p338
sg15
I400
sg16
g12
sg17
g12
sg18
V/System/Library/Fonts/SFNSDisplayCondensed-Black.otf
p339
sg20
g21
sbag1
(g8
g3
NtRp340
(dp341
g11
g12
sg13
VNoto Serif
p342
sg15
I400
sg16
g12
sg17
g12
sg18
V/Users/atsuya/Library/Fonts/NotoSerif-Thin.ttf
p343
sg20
g21
sbag1
(g8
g3
NtRp344
(dp345
g11
g12
sg13
VKokonor
p346
sg15
I400
sg16
g12
sg17
g12
sg18
V/Library/Fonts/Kokonor.ttf
p347
sg20
g21
sbag1
(g8
g3
NtRp348
(dp349
g11
g12
sg13
VApple Braille
p350
sg15
I400
sg16
g12
sg17
g12
sg18
V/System/Library/Fonts/Apple Braille.ttf
p351
sg20
g21
sbag1
(g8
g3
NtRp352
(dp353
g11
g12
sg13
VSystem Font
p354
sg15
I400
sg16
g12
sg17
g12
sg18
V/System/Library/Fonts/SFNSDisplay-LightItalic.otf
p355
sg20
g21
sbag1
(g8
g3
NtRp356
(dp357
g11
g12
sg13
VNoto Serif
p358
sg15
I400
sg16
g12
sg17
g12
sg18
V/Users/atsuya/Library/Fonts/NotoSerif-ExtraCondensedMedium.ttf
p359
sg20
g21
sbag1
(g8
g3
NtRp360
(dp361
g11
g12
sg13
VNicoMoji+
p362
sg15
I400
sg16
g12
sg17
g12
sg18
V/Users/atsuya/Library/Fonts/nicomoji-plus_1.11.ttf
p363
sg20
g21
sbag1
(g8
g3
NtRp364
(dp365
g11
g12
sg13
VNoto Serif
p366
sg15
I700
sg16
g12
sg17
g12
sg18
V/Users/atsuya/Library/Fonts/NotoSerif-SemiCondensedBold.ttf
p367
sg20
g21
sbag1
(g8
g3
NtRp368
(dp369
g11
g12
sg13
VNoto Sans
p370
sg15
I400
sg16
g12
sg17
g12
sg18
V/Users/atsuya/Library/Fonts/NotoSans-SemiCondensedExtraLight.ttf
p371
sg20
g21
sbag1
(g8
g3
NtRp372
(dp373
g11
g12
sg13
VNoto Sans
p374
sg15
I400
sg16
g12
sg17
g12
sg18
V/Users/atsuya/Library/Fonts/NotoSans-SemiCondensedLight.ttf
p375
sg20
g21
sbag1
(g8
g3
NtRp376
(dp377
g11
g93
sg13
VSTIXNonUnicode
p378
sg15
I400
sg16
g12
sg17
g12
sg18
V/Library/Fonts/STIXNonUniIta.otf
p379
sg20
g21
sbag1
(g8
g3
NtRp380
(dp381
g11
g12
sg13
VComic Sans MS
p382
sg15
I700
sg16
g12
sg17
g12
sg18
V/Library/Fonts/Comic Sans MS Bold.ttf
p383
sg20
g21
sbag1
(g8
g3
NtRp384
(dp385
g11
g93
sg13
VBrush Script MT
p386
sg15
I400
sg16
g12
sg17
g12
sg18
V/Library/Fonts/Brush Script.ttf
p387
sg20
g21
sbag1
(g8
g3
NtRp388
(dp389
g11
g12
sg13
VNoto Sans
p390
sg15
I400
sg16
g12
sg17
g12
sg18
V/Users/atsuya/Library/Fonts/NotoSans-Thin.ttf
p391
sg20
g21
sbag1
(g8
g3
NtRp392
(dp393
g11
g12
sg13
VWebdings
p394
sg15
I400
sg16
g12
sg17
g12
sg18
V/Library/Fonts/Webdings.ttf
p395
sg20
g21
sbag1
(g8
g3
NtRp396
(dp397
g11
g12
sg13
VApple Braille
p398
sg15
I400
sg16
g12
sg17
g12
sg18
V/System/Library/Fonts/Apple Braille Pinpoint 6 Dot.ttf
p399
sg20
g21
sbag1
(g8
g3
NtRp400
(dp401
g11
g12
sg13
VSymbol
p402
sg15
I400
sg16
g12
sg17
g12
sg18
V/System/Library/Fonts/Symbol.ttf
p403
sg20
g21
sbag1
(g8
g3
NtRp404
(dp405
g11
g12
sg13
VSystem Font
p406
sg15
I400
sg16
g12
sg17
g12
sg18
V/System/Library/Fonts/SFNSDisplay-UltralightItalic.otf
p407
sg20
g21
sbag1
(g8
g3
NtRp408
(dp409
g11
g12
sg13
VNoto Sans
p410
sg15
I400
sg16
g12
sg17
g12
sg18
V/Users/atsuya/Library/Fonts/NotoSans-SemiBold.ttf
p411
sg20
g21
sbag1
(g8
g3
NtRp412
(dp413
g11
g12
sg13
VSTIXIntegralsUpSm
p414
sg15
I400
sg16
g12
sg17
g12
sg18
V/Library/Fonts/STIXIntUpSmReg.otf
p415
sg20
g21
sbag1
(g8
g3
NtRp416
(dp417
g11
g12
sg13
VSTIXSizeFourSym
p418
sg15
I700
sg16
g12
sg17
g12
sg18
V/Library/Fonts/STIXSizFourSymBol.otf
p419
sg20
g21
sbag1
(g8
g3
NtRp420
(dp421
g11
g93
sg13
VCourier New
p422
sg15
I400
sg16
g12
sg17
g12
sg18
V/Library/Fonts/Courier New Italic.ttf
p423
sg20
g21
sbag1
(g8
g3
NtRp424
(dp425
g11
g12
sg13
VArial Black
p426
sg15
I900
sg16
g12
sg17
g12
sg18
V/Library/Fonts/Arial Black.ttf
p427
sg20
g21
sbag1
(g8
g3
NtRp428
(dp429
g11
g12
sg13
V.SF Compact Display
p430
sg15
I400
sg16
g12
sg17
g12
sg18
V/System/Library/Fonts/SFCompactDisplay-Thin.otf
p431
sg20
g21
sbag1
(g8
g3
NtRp432
(dp433
g11
g93
sg13
VSTIXGeneral
p434
sg15
I400
sg16
g12
sg17
g12
sg18
V/Library/Fonts/STIXGeneralItalic.otf
p435
sg20
g21
sbag1
(g8
g3
NtRp436
(dp437
g11
g12
sg13
VSTIXSizeFourSym
p438
sg15
I400
sg16
g12
sg17
g12
sg18
V/Library/Fonts/STIXSizFourSymReg.otf
p439
sg20
g21
sbag1
(g8
g3
NtRp440
(dp441
g11
g12
sg13
VWingdings 3
p442
sg15
I400
sg16
g12
sg17
g12
sg18
V/Library/Fonts/Wingdings 3.ttf
p443
sg20
g21
sbag1
(g8
g3
NtRp444
(dp445
g11
g12
sg13
VNoto Sans
p446
sg15
I400
sg16
g12
sg17
g12
sg18
V/Users/atsuya/Library/Fonts/NotoSans-SemiCondensedThin.ttf
p447
sg20
g21
sbag1
(g8
g3
NtRp448
(dp449
g11
g12
sg13
V.SF Compact Text
p450
sg15
I400
sg16
g12
sg17
g12
sg18
V/System/Library/Fonts/SFCompactText-Regular.otf
p451
sg20
g21
sbag1
(g8
g3
NtRp452
(dp453
g11
g93
sg13
VNoto Sans
p454
sg15
I400
sg16
g12
sg17
g12
sg18
V/Users/atsuya/Library/Fonts/NotoSans-LightItalic.ttf
p455
sg20
g21
sbag1
(g8
g3
NtRp456
(dp457
g11
g12
sg13
VComic Sans MS
p458
sg15
I400
sg16
g12
sg17
g12
sg18
V/Library/Fonts/Comic Sans MS.ttf
p459
sg20
g21
sbag1
(g8
g3
NtRp460
(dp461
g11
g12
sg13
VNoto Serif
p462
sg15
I400
sg16
g12
sg17
g12
sg18
V/Users/atsuya/Library/Fonts/NotoSerif-ExtraCondensedSemiBold.ttf
p463
sg20
g21
sbag1
(g8
g3
NtRp464
(dp465
g11
g12
sg13
VLao Sangam MN
p466
sg15
I400
sg16
g12
sg17
g12
sg18
V/Library/Fonts/Lao Sangam MN.ttf
p467
sg20
g21
sbag1
(g8
g3
NtRp468
(dp469
g11
g12
sg13
VNoto Sans
p470
sg15
I400
sg16
g12
sg17
g12
sg18
V/Users/atsuya/Library/Fonts/NotoSans-CondensedMedium.ttf
p471
sg20
g21
sbag1
(g8
g3
NtRp472
(dp473
g11
g12
sg13
VWingdings
p474
sg15
I400
sg16
g12
sg17
g12
sg18
V/Library/Fonts/Wingdings.ttf
p475
sg20
g21
sbag1
(g8
g3
NtRp476
(dp477
g11
g12
sg13
VImpact
p478
sg15
I400
sg16
g12
sg17
g12
sg18
V/Library/Fonts/Impact.ttf
p479
sg20
g21
sbag1
(g8
g3
NtRp480
(dp481
g11
g12
sg13
V.SF NS Text Condensed
p482
sg15
I400
sg16
g12
sg17
g12
sg18
V/System/Library/Fonts/SFNSTextCondensed-Light.otf
p483
sg20
g21
sbag1
(g8
g3
NtRp484
(dp485
g11
g93
sg13
VGeorgia
p486
sg15
I700
sg16
g12
sg17
g12
sg18
V/Library/Fonts/Georgia Bold Italic.ttf
p487
sg20
g21
sbag1
(g8
g3
NtRp488
(dp489
g11
g12
sg13
V.SF Compact Rounded
p490
sg15
I400
sg16
g12
sg17
g12
sg18
V/System/Library/Fonts/SFCompactRounded-Regular.otf
p491
sg20
g21
sbag1
(g8
g3
NtRp492
(dp493
g11
g93
sg13
VNoto Sans
p494
sg15
I400
sg16
g12
sg17
g12
sg18
V/Users/atsuya/Library/Fonts/NotoSans-SemiCondensedThinItalic.ttf
p495
sg20
g21
sbag1
(g8
g3
NtRp496
(dp497
g11
g12
sg13
V07YasashisaAntique
p498
sg15
I400
sg16
g12
sg17
g12
sg18
V/Users/atsuya/Library/Fonts/07YasashisaAntique.ttf
p499
sg20
g21
sbag1
(g8
g3
NtRp500
(dp501
g11
g12
sg13
VHoefler Text
p502
sg15
I400
sg16
g12
sg17
g12
sg18
V/Library/Fonts/Hoefler Text Ornaments.ttf
p503
sg20
g21
sbag1
(g8
g3
NtRp504
(dp505
g11
g12
sg13
V.SF Compact Text
p506
sg15
I400
sg16
g12
sg17
g12
sg18
V/System/Library/Fonts/SFCompactText-BoldItalic.otf
p507
sg20
g21
sbag1
(g8
g3
NtRp508
(dp509
g11
g93
sg13
VNoto Sans
p510
sg15
I700
sg16
g12
sg17
g12
sg18
V/Users/atsuya/Library/Fonts/NotoSans-BoldItalic.ttf
p511
sg20
g21
sbag1
(g8
g3
NtRp512
(dp513
g11
g12
sg13
VNoto Serif
p514
sg15
I400
sg16
g12
sg17
g12
sg18
V/Users/atsuya/Library/Fonts/NotoSerif-Regular.ttf
p515
sg20
g21
sbag1
(g8
g3
NtRp516
(dp517
g11
g12
sg13
V.SF Compact Rounded
p518
sg15
I400
sg16
g12
sg17
g12
sg18
V/System/Library/Fonts/SFCompactRounded-Medium.otf
p519
sg20
g21
sbag1
(g8
g3
NtRp520
(dp521
g11
g12
sg13
VNoto Sans
p522
sg15
I400
sg16
g12
sg17
g12
sg18
V/Users/atsuya/Library/Fonts/NotoSans-SemiCondensedExtraBold.ttf
p523
sg20
g21
sbag1
(g8
g3
NtRp524
(dp525
g11
g12
sg13
VKH Dot Dougenzaka 12
p526
sg15
I400
sg16
g12
sg17
g12
sg18
V/Users/atsuya/Library/Fonts/KH-Dot-Dougenzaka-12.ttf
p527
sg20
g21
sbag1
(g8
g3
NtRp528
(dp529
g11
g93
sg13
VNoto Serif
p530
sg15
I400
sg16
g12
sg17
g12
sg18
V/Users/atsuya/Library/Fonts/NotoSerif-MediumItalic.ttf
p531
sg20
g21
sbag1
(g8
g3
NtRp532
(dp533
g11
g12
sg13
V.SF NS Display Condensed
p534
sg15
I400
sg16
g12
sg17
g12
sg18
V/System/Library/Fonts/SFNSDisplayCondensed-Bold.otf
p535
sg20
g21
sbag1
(g8
g3
NtRp536
(dp537
g11
g93
sg13
VNoto Sans
p538
sg15
I400
sg16
g12
sg17
g12
sg18
V/Users/atsuya/Library/Fonts/NotoSans-ExtraCondensedSemiBoldItalic.ttf
p539
sg20
g21
sbag1
(g8
g3
NtRp540
(dp541
g11
g93
sg13
VNoto Serif
p542
sg15
I400
sg16
g12
sg17
g12
sg18
V/Users/atsuya/Library/Fonts/NotoSerif-CondensedSemiBoldItalic.ttf
p543
sg20
g21
sbag1
(g8
g3
NtRp544
(dp545
g11
g12
sg13
V.SF Compact Text
p546
sg15
I400
sg16
g12
sg17
g12
sg18
V/System/Library/Fonts/SFCompactText-Medium.otf
p547
sg20
g21
sbag1
(g8
g3
NtRp548
(dp549
g11
g12
sg13
VZapf Dingbats
p550
sg15
I400
sg16
g12
sg17
g12
sg18
V/System/Library/Fonts/ZapfDingbats.ttf
p551
sg20
g21
sbag1
(g8
g3
NtRp552
(dp553
g11
g12
sg13
V.SF Compact Rounded
p554
sg15
I400
sg16
g12
sg17
g12
sg18
V/System/Library/Fonts/SFCompactRounded-Semibold.otf
p555
sg20
g21
sbag1
(g8
g3
NtRp556
(dp557
g11
g12
sg13
VSystem Font
p558
sg15
I400
sg16
g12
sg17
g12
sg18
V/System/Library/Fonts/SFNSTextItalic.ttf
p559
sg20
g21
sbag1
(g8
g3
NtRp560
(dp561
g11
g93
sg13
VNoto Serif
p562
sg15
I400
sg16
g12
sg17
g12
sg18
V/Users/atsuya/Library/Fonts/NotoSerif-ExtraCondensedExtraBoldItalic.ttf
p563
sg20
g21
sbag1
(g8
g3
NtRp564
(dp565
g11
g93
sg13
VNoto Sans
p566
sg15
I400
sg16
g12
sg17
g12
sg18
V/Users/atsuya/Library/Fonts/NotoSans-CondensedLightItalic.ttf
p567
sg20
g21
sbag1
(g8
g3
NtRp568
(dp569
g11
g12
sg13
VLuminari
p570
sg15
I400
sg16
g12
sg17
g12
sg18
V/Library/Fonts/Luminari.ttf
p571
sg20
g21
sbag1
(g8
g3
NtRp572
(dp573
g11
g12
sg13
VNoto Serif
p574
sg15
I400
sg16
g12
sg17
g12
sg18
V/Users/atsuya/Library/Fonts/NotoSerif-CondensedBlack.ttf
p575
sg20
g21
sbag1
(g8
g3
NtRp576
(dp577
g11
g12
sg13
VNoto Sans
p578
sg15
I400
sg16
g12
sg17
g12
sg18
V/Users/atsuya/Library/Fonts/NotoSans-ExtraCondensedBlack.ttf
p579
sg20
g21
sbag1
(g8
g3
NtRp580
(dp581
g11
g12
sg13
VSTIXSizeTwoSym
p582
sg15
I700
sg16
g12
sg17
g12
sg18
V/Library/Fonts/STIXSizTwoSymBol.otf
p583
sg20
g21
sbag1
(g8
g3
NtRp584
(dp585
g11
g12
sg13
VSTIXIntegralsSm
p586
sg15
I700
sg16
g12
sg17
g12
sg18
V/Library/Fonts/STIXIntSmBol.otf
p587
sg20
g21
sbag1
(g8
g3
NtRp588
(dp589
g11
g12
sg13
VBradley Hand
p590
sg15
I700
sg16
g12
sg17
g12
sg18
V/Library/Fonts/Bradley Hand Bold.ttf
p591
sg20
g21
sbag1
(g8
g3
NtRp592
(dp593
g11
g12
sg13
VArial Narrow
p594
sg15
I700
sg16
Vcondensed
p595
sg17
g12
sg18
V/Library/Fonts/Arial Narrow Bold.ttf
p596
sg20
g21
sbag1
(g8
g3
NtRp597
(dp598
g11
g93
sg13
VNoto Serif
p599
sg15
I400
sg16
g12
sg17
g12
sg18
V/Users/atsuya/Library/Fonts/NotoSerif-ExtraCondensedItalic.ttf
p600
sg20
g21
sbag1
(g8
g3
NtRp601
(dp602
g11
g93
sg13
VNoto Sans
p603
sg15
I400
sg16
g12
sg17
g12
sg18
V/Users/atsuya/Library/Fonts/NotoSans-ExtraCondensedLightItalic.ttf
p604
sg20
g21
sbag1
(g8
g3
NtRp605
(dp606
g11
g12
sg13
VSystem Font
p607
sg15
I400
sg16
g12
sg17
g12
sg18
V/System/Library/Fonts/SFNSDisplay-MediumItalic.otf
p608
sg20
g21
sbag1
(g8
g3
NtRp609
(dp610
g11
g12
sg13
VArial
p611
sg15
I700
sg16
g12
sg17
g12
sg18
V/Library/Fonts/Arial Bold.ttf
p612
sg20
g21
sbag1
(g8
g3
NtRp613
(dp614
g11
g93
sg13
VNoto Sans
p615
sg15
I400
sg16
g12
sg17
g12
sg18
V/Users/atsuya/Library/Fonts/NotoSans-ExtraCondensedExtraLightItalic.ttf
p616
sg20
g21
sbag1
(g8
g3
NtRp617
(dp618
g11
g93
sg13
VNoto Serif
p619
sg15
I400
sg16
g12
sg17
g12
sg18
V/Users/atsuya/Library/Fonts/NotoSerif-CondensedExtraLightItalic.ttf
p620
sg20
g21
sbag1
(g8
g3
NtRp621
(dp622
g11
g12
sg13
VNoto Sans
p623
sg15
I700
sg16
g12
sg17
g12
sg18
V/Users/atsuya/Library/Fonts/NotoSans-Bold.ttf
p624
sg20
g21
sbag1
(g8
g3
NtRp625
(dp626
g11
g12
sg13
V.SF Compact Text
p627
sg15
I400
sg16
g12
sg17
g12
sg18
V/System/Library/Fonts/SFCompactText-Semibold.otf
p628
sg20
g21
sbag1
(g8
g3
NtRp629
(dp630
g11
g12
sg13
VKH Dot Kodenmachou 12
p631
sg15
I400
sg16
g12
sg17
g12
sg18
V/Users/atsuya/Library/Fonts/KH-Dot-Kodenmachou-12.ttf
p632
sg20
g21
sbag1
(g8
g3
NtRp633
(dp634
g11
g93
sg13
VNoto Serif
p635
sg15
I700
sg16
g12
sg17
g12
sg18
V/Users/atsuya/Library/Fonts/NotoSerif-ExtraCondensedBoldItalic.ttf
p636
sg20
g21
sbag1
(g8
g3
NtRp637
(dp638
g11
g12
sg13
VNoto Sans
p639
sg15
I400
sg16
g12
sg17
g12
sg18
V/Users/atsuya/Library/Fonts/NotoSans-CondensedLight.ttf
p640
sg20
g21
sbag1
(g8
g3
NtRp641
(dp642
g11
g12
sg13
V.LastResort
p643
sg15
I400
sg16
g12
sg17
g12
sg18
V/System/Library/Fonts/LastResort.otf
p644
sg20
g21
sbag1
(g8
g3
NtRp645
(dp646
g11
g12
sg13
V.SF Compact Text
p647
sg15
I400
sg16
g12
sg17
g12
sg18
V/System/Library/Fonts/SFCompactText-Bold.otf
p648
sg20
g21
sbag1
(g8
g3
NtRp649
(dp650
g11
g12
sg13
VNoto Sans
p651
sg15
I400
sg16
g12
sg17
g12
sg18
V/Users/atsuya/Library/Fonts/NotoSans-Light.ttf
p652
sg20
g21
sbag1
(g8
g3
NtRp653
(dp654
g11
g12
sg13
VVerdana
p655
sg15
I400
sg16
g12
sg17
g12
sg18
V/Library/Fonts/Verdana.ttf
p656
sg20
g21
sbag1
(g8
g3
NtRp657
(dp658
g11
g12
sg13
VFarisi
p659
sg15
I400
sg16
g12
sg17
g12
sg18
V/Library/Fonts/Farisi.ttf
p660
sg20
g21
sbag1
(g8
g3
NtRp661
(dp662
g11
g12
sg13
VSystem Font
p663
sg15
I400
sg16
g12
sg17
g12
sg18
V/System/Library/Fonts/SFNSText.ttf
p664
sg20
g21
sbag1
(g8
g3
NtRp665
(dp666
g11
g12
sg13
VSTIXNonUnicode
p667
sg15
I400
sg16
g12
sg17
g12
sg18
V/Library/Fonts/STIXNonUni.otf
p668
sg20
g21
sbag1
(g8
g3
NtRp669
(dp670
g11
g12
sg13
VBodoni 72 Smallcaps
p671
sg15
I400
sg16
g12
sg17
g12
sg18
V/Library/Fonts/Bodoni 72 Smallcaps Book.ttf
p672
sg20
g21
sbag1
(g8
g3
NtRp673
(dp674
g11
g93
sg13
VNoto Serif
p675
sg15
I400
sg16
g12
sg17
g12
sg18
V/Users/atsuya/Library/Fonts/NotoSerif-CondensedLightItalic.ttf
p676
sg20
g21
sbag1
(g8
g3
NtRp677
(dp678
g11
g93
sg13
VArial
p679
sg15
I400
sg16
g12
sg17
g12
sg18
V/Library/Fonts/Arial Italic.ttf
p680
sg20
g21
sbag1
(g8
g3
NtRp681
(dp682
g11
g93
sg13
VSTIXNonUnicode
p683
sg15
I700
sg16
g12
sg17
g12
sg18
V/Library/Fonts/STIXNonUniBolIta.otf
p684
sg20
g21
sbag1
(g8
g3
NtRp685
(dp686
g11
g12
sg13
VNoto Sans
p687
sg15
I400
sg16
g12
sg17
g12
sg18
V/Users/atsuya/Library/Fonts/NotoSans-CondensedExtraLight.ttf
p688
sg20
g21
sbag1
(g8
g3
NtRp689
(dp690
g11
g93
sg13
VNoto Serif
p691
sg15
I400
sg16
g12
sg17
g12
sg18
V/Users/atsuya/Library/Fonts/NotoSerif-ThinItalic.ttf
p692
sg20
g21
sbag1
(g8
g3
NtRp693
(dp694
g11
g12
sg13
VNoto Sans
p695
sg15
I400
sg16
g12
sg17
g12
sg18
V/Users/atsuya/Library/Fonts/NotoSans-Regular.ttf
p696
sg20
g21
sbag1
(g8
g3
NtRp697
(dp698
g11
g12
sg13
VNoto Serif
p699
sg15
I400
sg16
g12
sg17
g12
sg18
V/Users/atsuya/Library/Fonts/NotoSerif-SemiCondensed.ttf
p700
sg20
g21
sbag1
(g8
g3
NtRp701
(dp702
g11
g12
sg13
VNoto Serif
p703
sg15
I400
sg16
g12
sg17
g12
sg18
V/Users/atsuya/Library/Fonts/NotoSerif-CondensedExtraLight.ttf
p704
sg20
g21
sbag1
(g8
g3
NtRp705
(dp706
g11
g12
sg13
VNoto Serif
p707
sg15
I400
sg16
g12
sg17
g12
sg18
V/Users/atsuya/Library/Fonts/NotoSerif-ExtraCondensedBlack.ttf
p708
sg20
g21
sbag1
(g8
g3
NtRp709
(dp710
g11
g12
sg13
VNoto Sans
p711
sg15
I400
sg16
g12
sg17
g12
sg18
V/Users/atsuya/Library/Fonts/NotoSans-SemiCondensedSemiBold.ttf
p712
sg20
g21
sbag1
(g8
g3
NtRp713
(dp714
g11
g12
sg13
VSTIXIntegralsSm
p715
sg15
I400
sg16
g12
sg17
g12
sg18
V/Library/Fonts/STIXIntSmReg.otf
p716
sg20
g21
sbag1
(g8
g3
NtRp717
(dp718
g11
g93
sg13
VVerdana
p719
sg15
I400
sg16
g12
sg17
g12
sg18
V/Library/Fonts/Verdana Italic.ttf
p720
sg20
g21
sbag1
(g8
g3
NtRp721
(dp722
g11
g12
sg13
VChalkduster
p723
sg15
I400
sg16
g12
sg17
g12
sg18
V/Library/Fonts/Chalkduster.ttf
p724
sg20
g21
sbag1
(g8
g3
NtRp725
(dp726
g11
g93
sg13
VNoto Sans
p727
sg15
I400
sg16
g12
sg17
g12
sg18
V/Users/atsuya/Library/Fonts/NotoSans-SemiCondensedBlackItalic.ttf
p728
sg20
g21
sbag1
(g8
g3
NtRp729
(dp730
g11
g12
sg13
VSTIXIntegralsUp
p731
sg15
I400
sg16
g12
sg17
g12
sg18
V/Library/Fonts/STIXIntUpReg.otf
p732
sg20
g21
sbag1
(g8
g3
NtRp733
(dp734
g11
g12
sg13
V.SF Compact Rounded
p735
sg15
I400
sg16
g12
sg17
g12
sg18
V/System/Library/Fonts/SFCompactRounded-Black.otf
p736
sg20
g21
sbag1
(g8
g3
NtRp737
(dp738
g11
g93
sg13
VNoto Serif
p739
sg15
I400
sg16
g12
sg17
g12
sg18
V/Users/atsuya/Library/Fonts/NotoSerif-CondensedExtraBoldItalic.ttf
p740
sg20
g21
sbag1
(g8
g3
NtRp741
(dp742
g11
g93
sg13
VNoto Sans
p743
sg15
I400
sg16
g12
sg17
g12
sg18
V/Users/atsuya/Library/Fonts/NotoSans-ExtraCondensedExtraBoldItalic.ttf
p744
sg20
g21
sbag1
(g8
g3
NtRp745
(dp746
g11
g12
sg13
VAyuthaya
p747
sg15
I400
sg16
g12
sg17
g12
sg18
V/Library/Fonts/Ayuthaya.ttf
p748
sg20
g21
sbag1
(g8
g3
NtRp749
(dp750
g11
g93
sg13
VNoto Serif
p751
sg15
I400
sg16
g12
sg17
g12
sg18
V/Users/atsuya/Library/Fonts/NotoSerif-ExtraCondensedBlackItalic.ttf
p752
sg20
g21
sbag1
(g8
g3
NtRp753
(dp754
g11
g12
sg13
V.SF Compact Rounded
p755
sg15
I400
sg16
g12
sg17
g12
sg18
V/System/Library/Fonts/SFCompactRounded-Bold.otf
p756
sg20
g21
sbag1
(g8
g3
NtRp757
(dp758
g11
g12
sg13
V.SF Compact Text
p759
sg15
I400
sg16
g12
sg17
g12
sg18
V/System/Library/Fonts/SFCompactText-RegularItalic.otf
p760
sg20
g21
sbag1
(g8
g3
NtRp761
(dp762
g11
g93
sg13
VNoto Sans
p763
sg15
I400
sg16
g12
sg17
g12
sg18
V/Users/atsuya/Library/Fonts/NotoSans-ExtraBoldItalic.ttf
p764
sg20
g21
sbag1
(g8
g3
NtRp765
(dp766
g11
g93
sg13
VNoto Serif
p767
sg15
I700
sg16
g12
sg17
g12
sg18
V/Users/atsuya/Library/Fonts/NotoSerif-BoldItalic.ttf
p768
sg20
g21
sbag1
(g8
g3
NtRp769
(dp770
g11
g93
sg13
VNoto Serif
p771
sg15
I400
sg16
g12
sg17
g12
sg18
V/Users/atsuya/Library/Fonts/NotoSerif-SemiCondensedThinItalic.ttf
p772
sg20
g21
sbag1
(g8
g3
NtRp773
(dp774
g11
g93
sg13
VNoto Serif
p775
sg15
I400
sg16
g12
sg17
g12
sg18
V/Users/atsuya/Library/Fonts/NotoSerif-CondensedMediumItalic.ttf
p776
sg20
g21
sbag1
(g8
g3
NtRp777
(dp778
g11
g12
sg13
VNoto Serif
p779
sg15
I400
sg16
g12
sg17
g12
sg18
V/Users/atsuya/Library/Fonts/NotoSerif-Black.ttf
p780
sg20
g21
sbag1
(g8
g3
NtRp781
(dp782
g11
g12
sg13
VAndale Mono
p783
sg15
I400
sg16
g12
sg17
g12
sg18
V/Library/Fonts/Andale Mono.ttf
p784
sg20
g21
sbag1
(g8
g3
NtRp785
(dp786
g11
g12
sg13
VNoto Sans
p787
sg15
I400
sg16
g12
sg17
g12
sg18
V/Users/atsuya/Library/Fonts/NotoSans-CondensedBlack.ttf
p788
sg20
g21
sbag1
(g8
g3
NtRp789
(dp790
g11
g12
sg13
VSilom
p791
sg15
I400
sg16
g12
sg17
g12
sg18
V/Library/Fonts/Silom.ttf
p792
sg20
g21
sbag1
(g8
g3
NtRp793
(dp794
g11
g12
sg13
VTahoma
p795
sg15
I700
sg16
g12
sg17
g12
sg18
V/Library/Fonts/Tahoma Bold.ttf
p796
sg20
g21
sbag1
(g8
g3
NtRp797
(dp798
g11
g12
sg13
VNoto Sans
p799
sg15
I400
sg16
g12
sg17
g12
sg18
V/Users/atsuya/Library/Fonts/NotoSans-SemiCondensedMedium.ttf
p800
sg20
g21
sbag1
(g8
g3
NtRp801
(dp802
g11
g12
sg13
VKH Dot Hibiya 24
p803
sg15
I400
sg16
g12
sg17
g12
sg18
V/Users/atsuya/Library/Fonts/KH-Dot-Hibiya-24.ttf
p804
sg20
g21
sbag1
(g8
g3
NtRp805
(dp806
g11
g12
sg13
VNoto Serif
p807
sg15
I400
sg16
g12
sg17
g12
sg18
V/Users/atsuya/Library/Fonts/NotoSerif-ExtraCondensedLight.ttf
p808
sg20
g21
sbag1
(g8
g3
NtRp809
(dp810
g11
g12
sg13
VNoto Sans
p811
sg15
I700
sg16
g12
sg17
g12
sg18
V/Users/atsuya/Library/Fonts/NotoSans-CondensedBold.ttf
p812
sg20
g21
sbag1
(g8
g3
NtRp813
(dp814
g11
g12
sg13
VAppend CP Font
p815
sg15
I400
sg16
g12
sg17
g12
sg18
V/Users/atsuya/Library/Fonts/Append CP Font.ttf
p816
sg20
g21
sbag1
(g8
g3
NtRp817
(dp818
g11
g93
sg13
VNoto Sans
p819
sg15
I400
sg16
g12
sg17
g12
sg18
V/Users/atsuya/Library/Fonts/NotoSans-ExtraCondensedMediumItalic.ttf
p820
sg20
g21
sbag1
(g8
g3
NtRp821
(dp822
g11
g12
sg13
VBig Caslon
p823
sg15
I500
sg16
g12
sg17
g12
sg18
V/Library/Fonts/BigCaslon.ttf
p824
sg20
g21
sbag1
(g8
g3
NtRp825
(dp826
g11
g12
sg13
VNoto Sans
p827
sg15
I400
sg16
g12
sg17
g12
sg18
V/Users/atsuya/Library/Fonts/NotoSans-Medium.ttf
p828
sg20
g21
sbag1
(g8
g3
NtRp829
(dp830
g11
g12
sg13
VVerdana
p831
sg15
I700
sg16
g12
sg17
g12
sg18
V/Library/Fonts/Verdana Bold.ttf
p832
sg20
g21
sbag1
(g8
g3
NtRp833
(dp834
g11
g12
sg13
VSTIXSizeThreeSym
p835
sg15
I400
sg16
g12
sg17
g12
sg18
V/Library/Fonts/STIXSizThreeSymReg.otf
p836
sg20
g21
sbag1
(g8
g3
NtRp837
(dp838
g11
g93
sg13
VNoto Sans
p839
sg15
I400
sg16
g12
sg17
g12
sg18
V/Users/atsuya/Library/Fonts/NotoSans-MediumItalic.ttf
p840
sg20
g21
sbag1
(g8
g3
NtRp841
(dp842
g11
g12
sg13
VDIN Condensed
p843
sg15
I700
sg16
g595
sg17
g12
sg18
V/Library/Fonts/DIN Condensed Bold.ttf
p844
sg20
g21
sbag1
(g8
g3
NtRp845
(dp846
g11
g12
sg13
VElectroharmonix
p847
sg15
I400
sg16
g12
sg17
g12
sg18
V/Users/atsuya/Library/Fonts/electroharmonix.ttf
p848
sg20
g21
sbag1
(g8
g3
NtRp849
(dp850
g11
g93
sg13
VNoto Sans
p851
sg15
I400
sg16
g12
sg17
g12
sg18
V/Users/atsuya/Library/Fonts/NotoSans-CondensedThinItalic.ttf
p852
sg20
g21
sbag1
(g8
g3
NtRp853
(dp854
g11
g12
sg13
VArial
p855
sg15
I400
sg16
g12
sg17
g12
sg18
V/Library/Fonts/Arial.ttf
p856
sg20
g21
sbag1
(g8
g3
NtRp857
(dp858
g11
g12
sg13
VAppleGothic
p859
sg15
I400
sg16
g12
sg17
g12
sg18
V/Library/Fonts/AppleGothic.ttf
p860
sg20
g21
sbag1
(g8
g3
NtRp861
(dp862
g11
g12
sg13
VNoto Sans
p863
sg15
I400
sg16
g12
sg17
g12
sg18
V/Users/atsuya/Library/Fonts/NotoSans-CondensedThin.ttf
p864
sg20
g21
sbag1
(g8
g3
NtRp865
(dp866
g11
g12
sg13
VArial Narrow
p867
sg15
I400
sg16
g595
sg17
g12
sg18
V/Library/Fonts/Arial Narrow.ttf
p868
sg20
g21
sbag1
(g8
g3
NtRp869
(dp870
g11
g12
sg13
VSepatap
p871
sg15
I400
sg16
g12
sg17
g12
sg18
V/Users/atsuya/Library/Fonts/Sepatap-Regular.otf
p872
sg20
g21
sbag1
(g8
g3
NtRp873
(dp874
g11
g12
sg13
VNoto Sans
p875
sg15
I400
sg16
g12
sg17
g12
sg18
V/Users/atsuya/Library/Fonts/NotoSans-SemiCondensedBlack.ttf
p876
sg20
g21
sbag1
(g8
g3
NtRp877
(dp878
g11
g93
sg13
VNoto Serif
p879
sg15
I400
sg16
g12
sg17
g12
sg18
V/Users/atsuya/Library/Fonts/NotoSerif-SemiCondensedSemiBoldItalic.ttf
p880
sg20
g21
sbag1
(g8
g3
NtRp881
(dp882
g11
g12
sg13
V.SF NS Display Condensed
p883
sg15
I400
sg16
g12
sg17
g12
sg18
V/System/Library/Fonts/SFNSDisplayCondensed-Semibold.otf
p884
sg20
g21
sbag1
(g8
g3
NtRp885
(dp886
g11
g12
sg13
VMishafi
p887
sg15
I400
sg16
g12
sg17
g12
sg18
V/Library/Fonts/Mishafi.ttf
p888
sg20
g21
sbag1
(g8
g3
NtRp889
(dp890
g11
g12
sg13
VNoto Serif
p891
sg15
I700
sg16
g12
sg17
g12
sg18
V/Users/atsuya/Library/Fonts/NotoSerif-CondensedBold.ttf
p892
sg20
g21
sbag1
(g8
g3
NtRp893
(dp894
g11
g12
sg13
V.SF Compact Rounded
p895
sg15
I400
sg16
g12
sg17
g12
sg18
V/System/Library/Fonts/SFCompactRounded-Heavy.otf
p896
sg20
g21
sbag1
(g8
g3
NtRp897
(dp898
g11
g12
sg13
VNoto Sans
p899
sg15
I700
sg16
g12
sg17
g12
sg18
V/Users/atsuya/Library/Fonts/NotoSans-ExtraCondensedBold.ttf
p900
sg20
g21
sbag1
(g8
g3
NtRp901
(dp902
g11
g12
sg13
VNoto Sans
p903
sg15
I400
sg16
g12
sg17
g12
sg18
V/Users/atsuya/Library/Fonts/NotoSans-ExtraCondensed.ttf
p904
sg20
g21
sbag1
(g8
g3
NtRp905
(dp906
g11
g12
sg13
VNoto Serif
p907
sg15
I400
sg16
g12
sg17
g12
sg18
V/Users/atsuya/Library/Fonts/NotoSerif-ExtraCondensed.ttf
p908
sg20
g21
sbag1
(g8
g3
NtRp909
(dp910
g11
g12
sg13
VNoto Serif
p911
sg15
I400
sg16
g12
sg17
g12
sg18
V/Users/atsuya/Library/Fonts/NotoSerif-Condensed.ttf
p912
sg20
g21
sbag1
(g8
g3
NtRp913
(dp914
g11
g93
sg13
VTimes New Roman
p915
sg15
I500
sg16
g12
sg17
g12
sg18
V/Library/Fonts/Times New Roman Italic.ttf
p916
sg20
g21
sbag1
(g8
g3
NtRp917
(dp918
g11
g12
sg13
VNoto Serif
p919
sg15
I400
sg16
g12
sg17
g12
sg18
V/Users/atsuya/Library/Fonts/NotoSerif-ExtraCondensedThin.ttf
p920
sg20
g21
sbag1
(g8
g3
NtRp921
(dp922
g11
g93
sg13
VNoto Serif
p923
sg15
I700
sg16
g12
sg17
g12
sg18
V/Users/atsuya/Library/Fonts/NotoSerif-SemiCondensedBoldItalic.ttf
p924
sg20
g21
sbag1
(g8
g3
NtRp925
(dp926
g11
g12
sg13
V.SF NS Display Condensed
p927
sg15
I400
sg16
g12
sg17
g12
sg18
V/System/Library/Fonts/SFNSDisplayCondensed-Light.otf
p928
sg20
g21
sbag1
(g8
g3
NtRp929
(dp930
g11
g93
sg13
VNoto Serif
p931
sg15
I400
sg16
g12
sg17
g12
sg18
V/Users/atsuya/Library/Fonts/NotoSerif-Italic.ttf
p932
sg20
g21
sbag1
(g8
g3
NtRp933
(dp934
g11
g12
sg13
VGeorgia
p935
sg15
I400
sg16
g12
sg17
g12
sg18
V/Library/Fonts/Georgia.ttf
p936
sg20
g21
sbag1
(g8
g3
NtRp937
(dp938
g11
g12
sg13
VKH Dot kagurazaka 12
p939
sg15
I400
sg16
g12
sg17
g12
sg18
V/Users/atsuya/Library/Fonts/KH-Dot-Kagurazaka-12.ttf
p940
sg20
g21
sbag1
(g8
g3
NtRp941
(dp942
g11
g12
sg13
VTrebuchet MS
p943
sg15
I700
sg16
g12
sg17
g12
sg18
V/Library/Fonts/Trebuchet MS Bold.ttf
p944
sg20
g21
sbag1
(g8
g3
NtRp945
(dp946
g11
g12
sg13
VKH Dot Dougenzaka 16
p947
sg15
I400
sg16
g12
sg17
g12
sg18
V/Users/atsuya/Library/Fonts/KH-Dot-Dougenzaka-16.ttf
p948
sg20
g21
sbag1
(g8
g3
NtRp949
(dp950
g11
g93
sg13
VNoto Serif
p951
sg15
I400
sg16
g12
sg17
g12
sg18
V/Users/atsuya/Library/Fonts/NotoSerif-SemiCondensedItalic.ttf
p952
sg20
g21
sbag1
(g8
g3
NtRp953
(dp954
g11
g93
sg13
VNoto Sans
p955
sg15
I700
sg16
g12
sg17
g12
sg18
V/Users/atsuya/Library/Fonts/NotoSans-CondensedBoldItalic.ttf
p956
sg20
g21
sbag1
(g8
g3
NtRp957
(dp958
g11
g93
sg13
VTimes New Roman
p959
sg15
I700
sg16
g12
sg17
g12
sg18
V/Library/Fonts/Times New Roman Bold Italic.ttf
p960
sg20
g21
sbag1
(g8
g3
NtRp961
(dp962
g11
g93
sg13
VArial Narrow
p963
sg15
I400
sg16
g595
sg17
g12
sg18
V/Library/Fonts/Arial Narrow Italic.ttf
p964
sg20
g21
sbag1
(g8
g3
NtRp965
(dp966
g11
g12
sg13
V.SF Compact Display
p967
sg15
I400
sg16
g12
sg17
g12
sg18
V/System/Library/Fonts/SFCompactDisplay-Regular.otf
p968
sg20
g21
sbag1
(g8
g3
NtRp969
(dp970
g11
g12
sg13
V.SF NS Display Condensed
p971
sg15
I400
sg16
g12
sg17
g12
sg18
V/System/Library/Fonts/SFNSDisplayCondensed-Ultralight.otf
p972
sg20
g21
sbag1
(g8
g3
NtRp973
(dp974
g11
g12
sg13
VNoto Serif
p975
sg15
I400
sg16
g12
sg17
g12
sg18
V/Users/atsuya/Library/Fonts/NotoSerif-CondensedExtraBold.ttf
p976
sg20
g21
sbag1
(g8
g3
NtRp977
(dp978
g11
g12
sg13
VPlantagenet Cherokee
p979
sg15
I400
sg16
g12
sg17
g12
sg18
V/Library/Fonts/PlantagenetCherokee.ttf
p980
sg20
g21
sbag1
(g8
g3
NtRp981
(dp982
g11
g93
sg13
VNoto Serif
p983
sg15
I400
sg16
g12
sg17
g12
sg18
V/Users/atsuya/Library/Fonts/NotoSerif-ExtraCondensedLightItalic.ttf
p984
sg20
g21
sbag1
(g8
g3
NtRp985
(dp986
g11
g12
sg13
VSTIXVariants
p987
sg15
I400
sg16
g12
sg17
g12
sg18
V/Library/Fonts/STIXVar.otf
p988
sg20
g21
sbag1
(g8
g3
NtRp989
(dp990
g11
g12
sg13
VNoto Serif
p991
sg15
I400
sg16
g12
sg17
g12
sg18
V/Users/atsuya/Library/Fonts/NotoSerif-SemiCondensedExtraBold.ttf
p992
sg20
g21
sbag1
(g8
g3
NtRp993
(dp994
g11
g12
sg13
VSystem Font
p995
sg15
I400
sg16
g12
sg17
g12
sg18
V/System/Library/Fonts/SFNSDisplay-BlackItalic.otf
p996
sg20
g21
sbag1
(g8
g3
NtRp997
(dp998
g11
g93
sg13
VNoto Sans
p999
sg15
I400
sg16
g12
sg17
g12
sg18
V/Users/atsuya/Library/Fonts/NotoSans-CondensedExtraLightItalic.ttf
p1000
sg20
g21
sbag1
(g8
g3
NtRp1001
(dp1002
g11
g12
sg13
VKH Dot kagurazaka 16
p1003
sg15
I400
sg16
g12
sg17
g12
sg18
V/Users/atsuya/Library/Fonts/KH-Dot-Kagurazaka-16.ttf
p1004
sg20
g21
sbag1
(g8
g3
NtRp1005
(dp1006
g11
g12
sg13
VSkia
p1007
sg15
I400
sg16
g12
sg17
g12
sg18
V/Library/Fonts/Skia.ttf
p1008
sg20
g21
sbag1
(g8
g3
NtRp1009
(dp1010
g11
g12
sg13
VKH Dot Kodenmachou 12 Ki
p1011
sg15
I400
sg16
g12
sg17
g12
sg18
V/Users/atsuya/Library/Fonts/KH-Dot-Kodenmachou-12-Ki.ttf
p1012
sg20
g21
sbag1
(g8
g3
NtRp1013
(dp1014
g11
g12
sg13
V.SF Compact Display
p1015
sg15
I400
sg16
g12
sg17
g12
sg18
V/System/Library/Fonts/SFCompactDisplay-Light.otf
p1016
sg20
g21
sbag1
(g8
g3
NtRp1017
(dp1018
g11
g12
sg13
VNoto Serif
p1019
sg15
I400
sg16
g12
sg17
g12
sg18
V/Users/atsuya/Library/Fonts/NotoSerif-SemiCondensedSemiBold.ttf
p1020
sg20
g21
sbag1
(g8
g3
NtRp1021
(dp1022
g11
g12
sg13
VNoto Sans
p1023
sg15
I400
sg16
g12
sg17
g12
sg18
V/Users/atsuya/Library/Fonts/NotoSans-ExtraCondensedExtraBold.ttf
p1024
sg20
g21
sbag1
(g8
g3
NtRp1025
(dp1026
g11
g93
sg13
VNoto Sans
p1027
sg15
I400
sg16
g12
sg17
g12
sg18
V/Users/atsuya/Library/Fonts/NotoSans-CondensedItalic.ttf
p1028
sg20
g21
sbag1
(g8
g3
NtRp1029
(dp1030
g11
g93
sg13
VCourier New
p1031
sg15
I700
sg16
g12
sg17
g12
sg18
V/Library/Fonts/Courier New Bold Italic.ttf
p1032
sg20
g21
sbag1
(g8
g3
NtRp1033
(dp1034
g11
g12
sg13
VArial Rounded MT Bold
p1035
sg15
I700
sg16
g12
sg17
g12
sg18
V/Library/Fonts/Arial Rounded Bold.ttf
p1036
sg20
g21
sbag1
(g8
g3
NtRp1037
(dp1038
g11
g12
sg13
V.SF NS Display Condensed
p1039
sg15
I400
sg16
g12
sg17
g12
sg18
V/System/Library/Fonts/SFNSDisplayCondensed-Thin.otf
p1040
sg20
g21
sbag1
(g8
g3
NtRp1041
(dp1042
g11
g12
sg13
V.SF Compact Text
p1043
sg15
I400
sg16
g12
sg17
g12
sg18
V/System/Library/Fonts/SFCompactText-Heavy.otf
p1044
sg20
g21
sbag1
(g8
g3
NtRp1045
(dp1046
g11
g12
sg13
VNoto Sans
p1047
sg15
I700
sg16
g12
sg17
g12
sg18
V/Users/atsuya/Library/Fonts/NotoSans-SemiCondensedBold.ttf
p1048
sg20
g21
sbag1
(g8
g3
NtRp1049
(dp1050
g11
g12
sg13
VNoto Sans
p1051
sg15
I400
sg16
g12
sg17
g12
sg18
V/Users/atsuya/Library/Fonts/NotoSans-CondensedSemiBold.ttf
p1052
sg20
g21
sbag1
(g8
g3
NtRp1053
(dp1054
g11
g12
sg13
VKH Dot Hatcyoubori 16
p1055
sg15
I400
sg16
g12
sg17
g12
sg18
V/Users/atsuya/Library/Fonts/KH-Dot-Hatchoubori-16.ttf
p1056
sg20
g21
sbag1
(g8
g3
NtRp1057
(dp1058
g11
g12
sg13
VNoto Serif
p1059
sg15
I700
sg16
g12
sg17
g12
sg18
V/Users/atsuya/Library/Fonts/NotoSerif-Bold.ttf
p1060
sg20
g21
sbag1
(g8
g3
NtRp1061
(dp1062
g11
g12
sg13
VNoto Sans
p1063
sg15
I400
sg16
g12
sg17
g12
sg18
V/Users/atsuya/Library/Fonts/NotoSans-ExtraBold.ttf
p1064
sg20
g21
sbag1
(g8
g3
NtRp1065
(dp1066
g11
g12
sg13
V.SF NS Text Condensed
p1067
sg15
I400
sg16
g12
sg17
g12
sg18
V/System/Library/Fonts/SFNSTextCondensed-Semibold.otf
p1068
sg20
g21
sbag1
(g8
g3
NtRp1069
(dp1070
g11
g93
sg13
VNoto Sans
p1071
sg15
I400
sg16
g12
sg17
g12
sg18
V/Users/atsuya/Library/Fonts/NotoSans-Italic.ttf
p1072
sg20
g21
sbag1
(g8
g3
NtRp1073
(dp1074
g11
g12
sg13
V.SF Compact Text
p1075
sg15
I400
sg16
g12
sg17
g12
sg18
V/System/Library/Fonts/SFCompactText-SemiboldItalic.otf
p1076
sg20
g21
sbag1
(g8
g3
NtRp1077
(dp1078
g11
g12
sg13
VNoto Serif
p1079
sg15
I400
sg16
g12
sg17
g12
sg18
V/Users/atsuya/Library/Fonts/NotoSerif-CondensedLight.ttf
p1080
sg20
g21
sbag1
(g8
g3
NtRp1081
(dp1082
g11
g12
sg13
VNoto Sans
p1083
sg15
I400
sg16
g12
sg17
g12
sg18
V/Users/atsuya/Library/Fonts/NotoSans-ExtraCondensedLight.ttf
p1084
sg20
g21
sbag1
(g8
g3
NtRp1085
(dp1086
g11
g12
sg13
V.Keyboard
p1087
sg15
I400
sg16
g12
sg17
g12
sg18
V/System/Library/Fonts/Keyboard.ttf
p1088
sg20
g21
sbag1
(g8
g3
NtRp1089
(dp1090
g11
g93
sg13
VNoto Serif
p1091
sg15
I700
sg16
g12
sg17
g12
sg18
V/Users/atsuya/Library/Fonts/NotoSerif-CondensedBoldItalic.ttf
p1092
sg20
g21
sbag1
(g8
g3
NtRp1093
(dp1094
g11
g12
sg13
VNoto Serif
p1095
sg15
I400
sg16
g12
sg17
g12
sg18
V/Users/atsuya/Library/Fonts/NotoSerif-SemiCondensedExtraLight.ttf
p1096
sg20
g21
sbag1
(g8
g3
NtRp1097
(dp1098
g11
g12
sg13
VMicrosoft Sans Serif
p1099
sg15
I400
sg16
g12
sg17
g12
sg18
V/Library/Fonts/Microsoft Sans Serif.ttf
p1100
sg20
g21
sbag1
(g8
g3
NtRp1101
(dp1102
g11
g12
sg13
VSTIXIntegralsUpD
p1103
sg15
I700
sg16
g12
sg17
g12
sg18
V/Library/Fonts/STIXIntUpDBol.otf
p1104
sg20
g21
sbag1
(g8
g3
NtRp1105
(dp1106
g11
g93
sg13
VNoto Sans
p1107
sg15
I400
sg16
g12
sg17
g12
sg18
V/Users/atsuya/Library/Fonts/NotoSans-CondensedExtraBoldItalic.ttf
p1108
sg20
g21
sbag1
(g8
g3
NtRp1109
(dp1110
g11
g12
sg13
VSTIXGeneral
p1111
sg15
I400
sg16
g12
sg17
g12
sg18
V/Library/Fonts/STIXGeneral.otf
p1112
sg20
g21
sbag1
(g8
g3
NtRp1113
(dp1114
g11
g93
sg13
VNoto Serif
p1115
sg15
I400
sg16
g12
sg17
g12
sg18
V/Users/atsuya/Library/Fonts/NotoSerif-SemiCondensedBlackItalic.ttf
p1116
sg20
g21
sbag1
(g8
g3
NtRp1117
(dp1118
g11
g12
sg13
VNoto Sans
p1119
sg15
I400
sg16
g12
sg17
g12
sg18
V/Users/atsuya/Library/Fonts/NotoSans-ExtraCondensedExtraLight.ttf
p1120
sg20
g21
sbag1
(g8
g3
NtRp1121
(dp1122
g11
g12
sg13
VApple Chancery
p1123
sg15
I400
sg16
g12
sg17
g12
sg18
V/Library/Fonts/Apple Chancery.ttf
p1124
sg20
g21
sbag1
(g8
g3
NtRp1125
(dp1126
g11
g93
sg13
VNoto Serif
p1127
sg15
I400
sg16
g12
sg17
g12
sg18
V/Users/atsuya/Library/Fonts/NotoSerif-SemiCondensedExtraLightItalic.ttf
p1128
sg20
g21
sbag1
(g8
g3
NtRp1129
(dp1130
g11
g12
sg13
VSTIXIntegralsUpSm
p1131
sg15
I700
sg16
g12
sg17
g12
sg18
V/Library/Fonts/STIXIntUpSmBol.otf
p1132
sg20
g21
sbag1
(g8
g3
NtRp1133
(dp1134
g11
g93
sg13
VNoto Serif
p1135
sg15
I400
sg16
g12
sg17
g12
sg18
V/Users/atsuya/Library/Fonts/NotoSerif-SemiCondensedLightItalic.ttf
p1136
sg20
g21
sbag1
(g8
g3
NtRp1137
(dp1138
g11
g12
sg13
V03SmartFontUI
p1139
sg15
I400
sg16
g12
sg17
g12
sg18
V/Users/atsuya/Library/Fonts/03SmartFontUI.ttf
p1140
sg20
g21
sbag1
(g8
g3
NtRp1141
(dp1142
g11
g12
sg13
VSTIXSizeOneSym
p1143
sg15
I700
sg16
g12
sg17
g12
sg18
V/Library/Fonts/STIXSizOneSymBol.otf
p1144
sg20
g21
sbag1
(g8
g3
NtRp1145
(dp1146
g11
g12
sg13
VNoto Sans
p1147
sg15
I400
sg16
g12
sg17
g12
sg18
V/Users/atsuya/Library/Fonts/NotoSans-CondensedExtraBold.ttf
p1148
sg20
g21
sbag1
(g8
g3
NtRp1149
(dp1150
g11
g12
sg13
VSTIXSizeTwoSym
p1151
sg15
I400
sg16
g12
sg17
g12
sg18
V/Library/Fonts/STIXSizTwoSymReg.otf
p1152
sg20
g21
sbag1
(g8
g3
NtRp1153
(dp1154
g11
g12
sg13
VNoto Serif
p1155
sg15
I400
sg16
g12
sg17
g12
sg18
V/Users/atsuya/Library/Fonts/NotoSerif-ExtraLight.ttf
p1156
sg20
g21
sbag1
(g8
g3
NtRp1157
(dp1158
g11
g12
sg13
VGeorgia
p1159
sg15
I700
sg16
g12
sg17
g12
sg18
V/Library/Fonts/Georgia Bold.ttf
p1160
sg20
g21
sbag1
(g8
g3
NtRp1161
(dp1162
g11
g12
sg13
VSystem Font
p1163
sg15
I400
sg16
g12
sg17
g12
sg18
V/System/Library/Fonts/SFNSSymbols-Regular.otf
p1164
sg20
g21
sbag1
(g8
g3
NtRp1165
(dp1166
g11
g93
sg13
VNoto Sans
p1167
sg15
I400
sg16
g12
sg17
g12
sg18
V/Users/atsuya/Library/Fonts/NotoSans-CondensedMediumItalic.ttf
p1168
sg20
g21
sbag1
(g8
g3
NtRp1169
(dp1170
g11
g12
sg13
VSTIXIntegralsUpD
p1171
sg15
I400
sg16
g12
sg17
g12
sg18
V/Library/Fonts/STIXIntUpDReg.otf
p1172
sg20
g21
sbag1
(g8
g3
NtRp1173
(dp1174
g11
g93
sg13
VNoto Sans
p1175
sg15
I700
sg16
g12
sg17
g12
sg18
V/Users/atsuya/Library/Fonts/NotoSans-ExtraCondensedBoldItalic.ttf
p1176
sg20
g21
sbag1
(g8
g3
NtRp1177
(dp1178
g11
g12
sg13
VSystem Font
p1179
sg15
I400
sg16
g12
sg17
g12
sg18
V/System/Library/Fonts/SFNSDisplay-ThinItalic.otf
p1180
sg20
g21
sbag1
(g8
g3
NtRp1181
(dp1182
g11
g12
sg13
VKH Dot Ningyouchou 16
p1183
sg15
I400
sg16
g12
sg17
g12
sg18
V/Users/atsuya/Library/Fonts/KH-Dot-Ningyouchou-16.ttf
p1184
sg20
g21
sbag1
(g8
g3
NtRp1185
(dp1186
g11
g12
sg13
VKH Dot Akihabara 16
p1187
sg15
I400
sg16
g12
sg17
g12
sg18
V/Users/atsuya/Library/Fonts/KH-Dot-Akihabara-16.ttf
p1188
sg20
g21
sbag1
(g8
g3
NtRp1189
(dp1190
g11
g12
sg13
V.SF Compact Display
p1191
sg15
I400
sg16
g12
sg17
g12
sg18
V/System/Library/Fonts/SFCompactDisplay-Medium.otf
p1192
sg20
g21
sbag1
(g8
g3
NtRp1193
(dp1194
g11
g12
sg13
VArial Unicode MS
p1195
sg15
I400
sg16
g12
sg17
g12
sg18
V/Library/Fonts/Arial Unicode.ttf
p1196
sg20
g21
sbag1
(g8
g3
NtRp1197
(dp1198
g11
g12
sg13
V.SF NS Text Condensed
p1199
sg15
I400
sg16
g12
sg17
g12
sg18
V/System/Library/Fonts/SFNSTextCondensed-Bold.otf
p1200
sg20
g21
sbag1
(g8
g3
NtRp1201
(dp1202
g11
g93
sg13
VNoto Sans
p1203
sg15
I400
sg16
g12
sg17
g12
sg18
V/Users/atsuya/Library/Fonts/NotoSans-BlackItalic.ttf
p1204
sg20
g21
sbag1
(g8
g3
NtRp1205
(dp1206
g11
g12
sg13
V.SF NS Text Condensed
p1207
sg15
I400
sg16
g12
sg17
g12
sg18
V/System/Library/Fonts/SFNSTextCondensed-Regular.otf
p1208
sg20
g21
sbag1
(g8
g3
NtRp1209
(dp1210
g11
g12
sg13
VSTIXIntegralsD
p1211
sg15
I700
sg16
g12
sg17
g12
sg18
V/Library/Fonts/STIXIntDBol.otf
p1212
sg20
g21
sbag1
(g8
g3
NtRp1213
(dp1214
g11
g12
sg13
VDIN Alternate
p1215
sg15
I700
sg16
g12
sg17
g12
sg18
V/Library/Fonts/DIN Alternate Bold.ttf
p1216
sg20
g21
sbag1
(g8
g3
NtRp1217
(dp1218
g11
g12
sg13
V.SF Compact Display
p1219
sg15
I400
sg16
g12
sg17
g12
sg18
V/System/Library/Fonts/SFCompactDisplay-Bold.otf
p1220
sg20
g21
sbag1
(g8
g3
NtRp1221
(dp1222
g11
g12
sg13
VKH Dot Kabutochou 16
p1223
sg15
I400
sg16
g12
sg17
g12
sg18
V/Users/atsuya/Library/Fonts/KH-Dot-Kabutochou-16.ttf
p1224
sg20
g21
sbag1
(g8
g3
NtRp1225
(dp1226
g11
g12
sg13
VCourier New
p1227
sg15
I400
sg16
g12
sg17
g12
sg18
V/Library/Fonts/Courier New.ttf
p1228
sg20
g21
sbag1
(g8
g3
NtRp1229
(dp1230
g11
g93
sg13
VArial Narrow
p1231
sg15
I700
sg16
g595
sg17
g12
sg18
V/Library/Fonts/Arial Narrow Bold Italic.ttf
p1232
sg20
g21
sbag1
(g8
g3
NtRp1233
(dp1234
g11
g12
sg13
VZapfino
p1235
sg15
I400
sg16
g12
sg17
g12
sg18
V/Library/Fonts/Zapfino.ttf
p1236
sg20
g21
sbag1
(g8
g3
NtRp1237
(dp1238
g11
g93
sg13
VNoto Sans
p1239
sg15
I400
sg16
g12
sg17
g12
sg18
V/Users/atsuya/Library/Fonts/NotoSans-ThinItalic.ttf
p1240
sg20
g21
sbag1
(g8
g3
NtRp1241
(dp1242
g11
g12
sg13
VKrungthep
p1243
sg15
I400
sg16
g12
sg17
g12
sg18
V/Library/Fonts/Krungthep.ttf
p1244
sg20
g21
sbag1
(g8
g3
NtRp1245
(dp1246
g11
g12
sg13
VCorporate Logo Medium
p1247
sg15
I500
sg16
g12
sg17
g12
sg18
V/Library/Fonts/logotypejp_mp_m_1.1.ttf
p1248
sg20
g21
sbag1
(g8
g3
NtRp1249
(dp1250
g11
g93
sg13
VNoto Sans
p1251
sg15
I400
sg16
g12
sg17
g12
sg18
V/Users/atsuya/Library/Fonts/NotoSans-SemiCondensedExtraLightItalic.ttf
p1252
sg20
g21
sbag1
(g8
g3
NtRp1253
(dp1254
g11
g12
sg13
VNoto Sans
p1255
sg15
I400
sg16
g12
sg17
g12
sg18
V/Users/atsuya/Library/Fonts/NotoSans-SemiCondensed.ttf
p1256
sg20
g21
sbag1
(g8
g3
NtRp1257
(dp1258
g11
g12
sg13
VDiwan Thuluth
p1259
sg15
I400
sg16
g12
sg17
g12
sg18
V/Library/Fonts/Diwan Thuluth.ttf
p1260
sg20
g21
sbag1
(g8
g3
NtRp1261
(dp1262
g11
g12
sg13
V.SF Compact Text
p1263
sg15
I400
sg16
g12
sg17
g12
sg18
V/System/Library/Fonts/SFCompactText-HeavyItalic.otf
p1264
sg20
g21
sbag1
(g8
g3
NtRp1265
(dp1266
g11
g12
sg13
VNoto Sans
p1267
sg15
I400
sg16
g12
sg17
g12
sg18
V/Users/atsuya/Library/Fonts/NotoSans-ExtraCondensedThin.ttf
p1268
sg20
g21
sbag1
(g8
g3
NtRp1269
(dp1270
g11
g12
sg13
VNoto Serif
p1271
sg15
I400
sg16
g12
sg17
g12
sg18
V/Users/atsuya/Library/Fonts/NotoSerif-ExtraCondensedExtraBold.ttf
p1272
sg20
g21
sbag1
(g8
g3
NtRp1273
(dp1274
g11
g12
sg13
V.SF Compact Rounded
p1275
sg15
I400
sg16
g12
sg17
g12
sg18
V/System/Library/Fonts/SFCompactRounded-Thin.otf
p1276
sg20
g21
sbag1
(g8
g3
NtRp1277
(dp1278
g11
g93
sg13
VNoto Sans
p1279
sg15
I400
sg16
g12
sg17
g12
sg18
V/Users/atsuya/Library/Fonts/NotoSans-CondensedBlackItalic.ttf
p1280
sg20
g21
sbag1
(g8
g3
NtRp1281
(dp1282
g11
g12
sg13
VTrattatello
p1283
sg15
I400
sg16
g12
sg17
g12
sg18
V/Library/Fonts/Trattatello.ttf
p1284
sg20
g21
sbag1
(g8
g3
NtRp1285
(dp1286
g11
g12
sg13
VApple Braille
p1287
sg15
I400
sg16
g12
sg17
g12
sg18
V/System/Library/Fonts/Apple Braille Outline 8 Dot.ttf
p1288
sg20
g21
sbag1
(g8
g3
NtRp1289
(dp1290
g11
g12
sg13
V.SF NS Text Condensed
p1291
sg15
I400
sg16
g12
sg17
g12
sg18
V/System/Library/Fonts/SFNSTextCondensed-Heavy.otf
p1292
sg20
g21
sbag1
(g8
g3
NtRp1293
(dp1294
g11
g12
sg13
VTimes New Roman
p1295
sg15
I700
sg16
g12
sg17
g12
sg18
V/Library/Fonts/Times New Roman Bold.ttf
p1296
sg20
g21
sbag1
(g8
g3
NtRp1297
(dp1298
g11
g12
sg13
VNoto Serif
p1299
sg15
I400
sg16
g12
sg17
g12
sg18
V/Users/atsuya/Library/Fonts/NotoSerif-SemiBold.ttf
p1300
sg20
g21
sbag1
(g8
g3
NtRp1301
(dp1302
g11
g12
sg13
VSTIXVariants
p1303
sg15
I700
sg16
g12
sg17
g12
sg18
V/Library/Fonts/STIXVarBol.otf
p1304
sg20
g21
sbag1
(g8
g3
NtRp1305
(dp1306
g11
g12
sg13
VNoto Serif
p1307
sg15
I400
sg16
g12
sg17
g12
sg18
V/Users/atsuya/Library/Fonts/NotoSerif-Medium.ttf
p1308
sg20
g21
sbag1
(g8
g3
NtRp1309
(dp1310
g11
g93
sg13
VNoto Serif
p1311
sg15
I400
sg16
g12
sg17
g12
sg18
V/Users/atsuya/Library/Fonts/NotoSerif-CondensedItalic.ttf
p1312
sg20
g21
sbag1
(g8
g3
NtRp1313
(dp1314
g11
g93
sg13
VNoto Sans
p1315
sg15
I400
sg16
g12
sg17
g12
sg18
V/Users/atsuya/Library/Fonts/NotoSans-ExtraCondensedItalic.ttf
p1316
sg20
g21
sbag1
(g8
g3
NtRp1317
(dp1318
g11
g12
sg13
VSTIXIntegralsUp
p1319
sg15
I700
sg16
g12
sg17
g12
sg18
V/Library/Fonts/STIXIntUpBol.otf
p1320
sg20
g21
sbag1
(g8
g3
NtRp1321
(dp1322
g11
g12
sg13
VCorporate Logo Bold
p1323
sg15
I700
sg16
g12
sg17
g12
sg18
V/Library/Fonts/logotypejp_mp_b_1.1.ttf
p1324
sg20
g21
sbag1
(g8
g3
NtRp1325
(dp1326
g11
g93
sg13
VNoto Serif
p1327
sg15
I400
sg16
g12
sg17
g12
sg18
V/Users/atsuya/Library/Fonts/NotoSerif-LightItalic.ttf
p1328
sg20
g21
sbag1
(g8
g3
NtRp1329
(dp1330
g11
g93
sg13
VTrebuchet MS
p1331
sg15
I700
sg16
g12
sg17
g12
sg18
V/Library/Fonts/Trebuchet MS Bold Italic.ttf
p1332
sg20
g21
sbag1
(g8
g3
NtRp1333
(dp1334
g11
g12
sg13
VNoto Serif
p1335
sg15
I400
sg16
g12
sg17
g12
sg18
V/Users/atsuya/Library/Fonts/NotoSerif-CondensedSemiBold.ttf
p1336
sg20
g21
sbag1
(g8
g3
NtRp1337
(dp1338
g11
g12
sg13
VNoto Sans
p1339
sg15
I400
sg16
g12
sg17
g12
sg18
V/Users/atsuya/Library/Fonts/NotoSans-ExtraCondensedSemiBold.ttf
p1340
sg20
g21
sbag1
(g8
g3
NtRp1341
(dp1342
g11
g93
sg13
VNoto Sans
p1343
sg15
I400
sg16
g12
sg17
g12
sg18
V/Users/atsuya/Library/Fonts/NotoSans-ExtraLightItalic.ttf
p1344
sg20
g21
sbag1
(g8
g3
NtRp1345
(dp1346
g11
g93
sg13
VNoto Serif
p1347
sg15
I400
sg16
g12
sg17
g12
sg18
V/Users/atsuya/Library/Fonts/NotoSerif-ExtraCondensedSemiBoldItalic.ttf
p1348
sg20
g21
sbag1
(g8
g3
NtRp1349
(dp1350
g11
g12
sg13
VBodoni Ornaments
p1351
sg15
I400
sg16
g12
sg17
g12
sg18
V/Library/Fonts/Bodoni Ornaments.ttf
p1352
sg20
g21
sbag1
(g8
g3
NtRp1353
(dp1354
g11
g12
sg13
VApple Braille
p1355
sg15
I400
sg16
g12
sg17
g12
sg18
V/System/Library/Fonts/Apple Braille Pinpoint 8 Dot.ttf
p1356
sg20
g21
sbag1
(g8
g3
NtRp1357
(dp1358
g11
g93
sg13
VGeorgia
p1359
sg15
I400
sg16
g12
sg17
g12
sg18
V/Library/Fonts/Georgia Italic.ttf
p1360
sg20
g21
sbag1
(g8
g3
NtRp1361
(dp1362
g11
g12
sg13
VApple Braille
p1363
sg15
I400
sg16
g12
sg17
g12
sg18
V/System/Library/Fonts/Apple Braille Outline 6 Dot.ttf
p1364
sg20
g21
sbag1
(g8
g3
NtRp1365
(dp1366
g11
g12
sg13
V.SF Compact Display
p1367
sg15
I400
sg16
g12
sg17
g12
sg18
V/System/Library/Fonts/SFCompactDisplay-Semibold.otf
p1368
sg20
g21
sbag1
(g8
g3
NtRp1369
(dp1370
g11
g93
sg13
VNoto Sans
p1371
sg15
I400
sg16
g12
sg17
g12
sg18
V/Users/atsuya/Library/Fonts/NotoSans-ExtraCondensedBlackItalic.ttf
p1372
sg20
g21
sbag1
(g8
g3
NtRp1373
(dp1374
g11
g93
sg13
VNoto Sans
p1375
sg15
I700
sg16
g12
sg17
g12
sg18
V/Users/atsuya/Library/Fonts/NotoSans-SemiCondensedBoldItalic.ttf
p1376
sg20
g21
sbag1
(g8
g3
NtRp1377
(dp1378
g11
g12
sg13
VNoto Serif
p1379
sg15
I400
sg16
g12
sg17
g12
sg18
V/Users/atsuya/Library/Fonts/NotoSerif-SemiCondensedThin.ttf
p1380
sg20
g21
sbag1
(g8
g3
NtRp1381
(dp1382
g11
g93
sg13
VNoto Serif
p1383
sg15
I400
sg16
g12
sg17
g12
sg18
V/Users/atsuya/Library/Fonts/NotoSerif-CondensedThinItalic.ttf
p1384
sg20
g21
sbag1
(g8
g3
NtRp1385
(dp1386
g11
g12
sg13
V.SF Compact Display
p1387
sg15
I400
sg16
g12
sg17
g12
sg18
V/System/Library/Fonts/SFCompactDisplay-Black.otf
p1388
sg20
g21
sbag1
(g8
g3
NtRp1389
(dp1390
g11
g93
sg13
VNoto Sans
p1391
sg15
I400
sg16
g12
sg17
g12
sg18
V/Users/atsuya/Library/Fonts/NotoSans-SemiCondensedItalic.ttf
p1392
sg20
g21
sbag1
(g8
g3
NtRp1393
(dp1394
g11
g12
sg13
VKH Dot Kodenmachou 12 Ko
p1395
sg15
I400
sg16
g12
sg17
g12
sg18
V/Users/atsuya/Library/Fonts/KH-Dot-Kodenmachou-12-Ko.ttf
p1396
sg20
g21
sbag1
(g8
g3
NtRp1397
(dp1398
g11
g12
sg13
VSTIXGeneral
p1399
sg15
I700
sg16
g12
sg17
g12
sg18
V/Library/Fonts/STIXGeneralBol.otf
p1400
sg20
g21
sbag1
(g8
g3
NtRp1401
(dp1402
g11
g12
sg13
VSystem Font
p1403
sg15
I400
sg16
g12
sg17
g12
sg18
V/System/Library/Fonts/SFNSDisplay-HeavyItalic.otf
p1404
sg20
g21
sbag1
(g8
g3
NtRp1405
(dp1406
g11
g12
sg13
VNoto Serif
p1407
sg15
I400
sg16
g12
sg17
g12
sg18
V/Users/atsuya/Library/Fonts/NotoSerif-CondensedThin.ttf
p1408
sg20
g21
sbag1
(g8
g3
NtRp1409
(dp1410
g11
g93
sg13
VNoto Serif
p1411
sg15
I400
sg16
g12
sg17
g12
sg18
V/Users/atsuya/Library/Fonts/NotoSerif-SemiCondensedMediumItalic.ttf
p1412
sg20
g21
sbag1
(g8
g3
NtRp1413
(dp1414
g11
g93
sg13
VSTIXGeneral
p1415
sg15
I700
sg16
g12
sg17
g12
sg18
V/Library/Fonts/STIXGeneralBolIta.otf
p1416
sg20
g21
sbag1
(g8
g3
NtRp1417
(dp1418
g11
g12
sg13
VTrebuchet MS
p1419
sg15
I400
sg16
g12
sg17
g12
sg18
V/Library/Fonts/Trebuchet MS.ttf
p1420
sg20
g21
sbag1
(g8
g3
NtRp1421
(dp1422
g11
g93
sg13
VNoto Serif
p1423
sg15
I400
sg16
g12
sg17
g12
sg18
V/Users/atsuya/Library/Fonts/NotoSerif-ExtraCondensedMediumItalic.ttf
p1424
sg20
g21
sbag1
(g8
g3
NtRp1425
(dp1426
g11
g12
sg13
VCourier New
p1427
sg15
I700
sg16
g12
sg17
g12
sg18
V/Library/Fonts/Courier New Bold.ttf
p1428
sg20
g21
sbag1
(g8
g3
NtRp1429
(dp1430
g11
g12
sg13
V03SmartFontProportional3
p1431
sg15
I400
sg16
g12
sg17
g12
sg18
V/Users/atsuya/Library/Fonts/03SmartFont-P.ttf
p1432
sg20
g21
sbag1
(g8
g3
NtRp1433
(dp1434
g11
g12
sg13
VHerculanum
p1435
sg15
I400
sg16
g12
sg17
g12
sg18
V/Library/Fonts/Herculanum.ttf
p1436
sg20
g21
sbag1
(g8
g3
NtRp1437
(dp1438
g11
g12
sg13
VNoto Serif
p1439
sg15
I700
sg16
g12
sg17
g12
sg18
V/Users/atsuya/Library/Fonts/NotoSerif-ExtraCondensedBold.ttf
p1440
sg20
g21
sbag1
(g8
g3
NtRp1441
(dp1442
g11
g93
sg13
VNoto Sans
p1443
sg15
I400
sg16
g12
sg17
g12
sg18
V/Users/atsuya/Library/Fonts/NotoSans-ExtraCondensedThinItalic.ttf
p1444
sg20
g21
sbag1
(g8
g3
NtRp1445
(dp1446
g11
g12
sg13
VWingdings 2
p1447
sg15
I400
sg16
g12
sg17
g12
sg18
V/Library/Fonts/Wingdings 2.ttf
p1448
sg20
g21
sbag1
(g8
g3
NtRp1449
(dp1450
g11
g93
sg13
VNoto Serif
p1451
sg15
I400
sg16
g12
sg17
g12
sg18
V/Users/atsuya/Library/Fonts/NotoSerif-CondensedBlackItalic.ttf
p1452
sg20
g21
sbag1
(g8
g3
NtRp1453
(dp1454
g11
g12
sg13
VTahoma
p1455
sg15
I400
sg16
g12
sg17
g12
sg18
V/Library/Fonts/Tahoma.ttf
p1456
sg20
g21
sbag1
(g8
g3
NtRp1457
(dp1458
g11
g12
sg13
VNoto Serif
p1459
sg15
I400
sg16
g12
sg17
g12
sg18
V/Users/atsuya/Library/Fonts/NotoSerif-SemiCondensedLight.ttf
p1460
sg20
g21
sbag1
(g8
g3
NtRp1461
(dp1462
g11
g12
sg13
V.SF NS Display Condensed
p1463
sg15
I400
sg16
g12
sg17
g12
sg18
V/System/Library/Fonts/SFNSDisplayCondensed-Regular.otf
p1464
sg20
g21
sbag1
(g8
g3
NtRp1465
(dp1466
g11
g12
sg13
V.SF NS Display Condensed
p1467
sg15
I400
sg16
g12
sg17
g12
sg18
V/System/Library/Fonts/SFNSDisplayCondensed-Heavy.otf
p1468
sg20
g21
sbag1
(g8
g3
NtRp1469
(dp1470
g11
g12
sg13
VKhmer Sangam MN
p1471
sg15
I400
sg16
g12
sg17
g12
sg18
V/Library/Fonts/Khmer Sangam MN.ttf
p1472
sg20
g21
sbag1
(g8
g3
NtRp1473
(dp1474
g11
g12
sg13
V.SF Compact Text
p1475
sg15
I400
sg16
g12
sg17
g12
sg18
V/System/Library/Fonts/SFCompactText-Light.otf
p1476
sg20
g21
sbag1
(g8
g3
NtRp1477
(dp1478
g11
g12
sg13
V.SF Compact Display
p1479
sg15
I400
sg16
g12
sg17
g12
sg18
V/System/Library/Fonts/SFCompactDisplay-Ultralight.otf
p1480
sg20
g21
sbag1
(g8
g3
NtRp1481
(dp1482
g11
g12
sg13
V.SF NS Display Condensed
p1483
sg15
I400
sg16
g12
sg17
g12
sg18
V/System/Library/Fonts/SFNSDisplayCondensed-Medium.otf
p1484
sg20
g21
sbag1
(g8
g3
NtRp1485
(dp1486
g11
g12
sg13
V.SF Compact Text
p1487
sg15
I400
sg16
g12
sg17
g12
sg18
V/System/Library/Fonts/SFCompactText-LightItalic.otf
p1488
sg20
g21
sbag1
(g8
g3
NtRp1489
(dp1490
g11
g12
sg13
V.SF NS Text Condensed
p1491
sg15
I400
sg16
g12
sg17
g12
sg18
V/System/Library/Fonts/SFNSTextCondensed-Medium.otf
p1492
sg20
g21
sbag1
(g8
g3
NtRp1493
(dp1494
g11
g12
sg13
VSystem Font
p1495
sg15
I400
sg16
g12
sg17
g12
sg18
V/System/Library/Fonts/SFNSDisplay.ttf
p1496
sg20
g21
sbag1
(g8
g3
NtRp1497
(dp1498
g11
g12
sg13
VApple Symbols
p1499
sg15
I400
sg16
g12
sg17
g12
sg18
V/System/Library/Fonts/Apple Symbols.ttf
p1500
sg20
g21
sbag1
(g8
g3
NtRp1501
(dp1502
g11
g12
sg13
VNoto Serif
p1503
sg15
I400
sg16
g12
sg17
g12
sg18
V/Users/atsuya/Library/Fonts/NotoSerif-SemiCondensedMedium.ttf
p1504
sg20
g21
sbag1
(g8
g3
NtRp1505
(dp1506
g11
g12
sg13
V.SF Compact Text
p1507
sg15
I400
sg16
g12
sg17
g12
sg18
V/System/Library/Fonts/SFCompactText-MediumItalic.otf
p1508
sg20
g21
sbag1
(g8
g3
NtRp1509
(dp1510
g11
g12
sg13
VSTIXIntegralsD
p1511
sg15
I400
sg16
g12
sg17
g12
sg18
V/Library/Fonts/STIXIntDReg.otf
p1512
sg20
g21
sbag1
(g8
g3
NtRp1513
(dp1514
g11
g12
sg13
V.SF Compact Display
p1515
sg15
I400
sg16
g12
sg17
g12
sg18
V/System/Library/Fonts/SFCompactDisplay-Heavy.otf
p1516
sg20
g21
sbag1
(g8
g3
NtRp1517
(dp1518
g11
g93
sg13
VNoto Serif
p1519
sg15
I400
sg16
g12
sg17
g12
sg18
V/Users/atsuya/Library/Fonts/NotoSerif-ExtraBoldItalic.ttf
p1520
sg20
g21
sbag1
(g8
g3
NtRp1521
(dp1522
g11
g12
sg13
VSathu
p1523
sg15
I400
sg16
g12
sg17
g12
sg18
V/Library/Fonts/Sathu.ttf
p1524
sg20
g21
sbasS'defaultFamily'
p1525
(dp1526
Vafm
p1527
VHelvetica
p1528
sVttf
p1529
VBitstream Vera Sans
p1530
ssS'ttffiles'
p1531
(lp1532
g19
ag25
ag29
ag33
ag37
ag41
ag45
ag49
ag53
ag57
ag61
ag65
ag69
ag73
ag77
ag81
ag85
ag90
ag95
ag99
ag103
ag107
ag111
ag115
ag119
ag123
ag127
ag131
ag135
ag139
ag143
ag147
ag151
ag155
ag159
ag163
ag167
ag171
ag175
ag179
ag183
ag187
ag191
aV/Library/Fonts/NISC18030.ttf
p1533
ag195
ag199
ag203
ag207
ag211
ag215
ag219
ag223
ag227
ag231
ag235
ag239
ag243
ag247
ag251
ag255
ag259
ag263
ag267
ag271
ag275
ag279
ag283
ag287
ag291
ag295
ag299
ag303
ag307
ag311
ag315
ag319
ag323
ag327
ag331
ag335
ag339
ag343
ag347
ag351
ag355
ag359
ag363
ag367
ag371
ag375
ag379
ag383
ag387
ag391
ag395
ag399
ag403
ag407
ag411
ag415
ag419
ag423
ag427
ag431
ag435
ag439
ag443
ag447
ag451
ag455
ag459
ag463
ag467
ag471
ag475
ag479
ag483
ag487
ag491
ag495
ag499
ag503
ag507
ag511
ag515
ag519
ag523
ag527
ag531
ag535
ag539
ag543
ag547
ag551
ag555
ag559
ag563
ag567
ag571
ag575
ag579
ag583
ag587
ag591
ag596
ag600
ag604
ag608
ag612
ag616
ag620
ag624
ag628
ag632
ag636
ag640
ag644
ag648
ag652
ag656
ag660
ag664
ag668
ag672
ag676
ag680
ag684
ag688
ag692
ag696
ag700
ag704
ag708
ag712
ag716
ag720
ag724
ag728
ag732
ag736
ag740
ag744
ag748
ag752
ag756
ag760
ag764
ag768
ag772
ag776
ag780
ag784
ag788
ag792
ag796
ag800
ag804
ag808
ag812
ag816
ag820
ag824
ag828
ag832
ag836
ag840
ag844
ag848
ag852
ag856
ag860
ag864
ag868
ag872
ag876
ag880
ag884
ag888
ag892
ag896
ag900
ag904
ag908
ag912
ag916
ag920
ag924
ag928
ag932
ag936
ag940
ag944
ag948
ag952
ag956
ag960
ag964
ag968
ag972
ag976
ag980
ag984
ag988
ag992
ag996
ag1000
ag1004
ag1008
ag1012
ag1016
ag1020
ag1024
ag1028
ag1032
ag1036
ag1040
ag1044
ag1048
ag1052
ag1056
ag1060
ag1064
ag1068
ag1072
ag1076
ag1080
ag1084
ag1088
ag1092
ag1096
ag1100
ag1104
ag1108
ag1112
ag1116
ag1120
ag1124
ag1128
ag1132
ag1136
ag1140
ag1144
ag1148
ag1152
ag1156
ag1160
ag1164
ag1168
ag1172
ag1176
ag1180
ag1184
ag1188
aV/Library/Fonts/electroharmonix.ttf
p1534
ag1192
ag1196
ag1200
ag1204
ag1208
ag1212
ag1216
ag1220
ag1224
ag1228
ag1232
ag1236
ag1240
ag1244
ag1248
ag1252
ag1256
ag1260
ag1264
ag1268
ag1272
ag1276
ag1280
ag1284
ag1288
ag1292
ag1296
ag1300
ag1304
ag1308
ag1312
ag1316
ag1320
ag1324
ag1328
ag1332
ag1336
ag1340
ag1344
ag1348
ag1352
ag1356
ag1360
ag1364
ag1368
ag1372
ag1376
ag1380
ag1384
ag1388
ag1392
ag1396
ag1400
ag1404
ag1408
ag1412
ag1416
ag1420
ag1424
ag1428
ag1432
ag1436
ag1440
ag1444
ag1448
ag1452
ag1456
ag1460
ag1464
ag1468
ag1472
ag1476
ag1480
ag1484
ag1488
ag1492
ag1496
ag1500
ag1504
ag1508
ag1512
ag1516
ag1520
ag1524
asS'_FontManager__default_weight'
p1535
Vnormal
p1536
sS'_version'
p1537
I101
sS'default_size'
p1538
NsS'defaultFont'
p1539
(dp1540
g1527
V/Users/atsuya/.pyenv/versions/anaconda2-4.2.0/lib/python2.7/site-packages/matplotlib/mpl-data/fonts/afm/pbkdi8a.afm
p1541
sg1529
g107
ssS'afmfiles'
p1542
(lp1543
g1541
aV/Users/atsuya/.pyenv/versions/anaconda2-4.2.0/lib/python2.7/site-packages/matplotlib/mpl-data/fonts/afm/phvb8an.afm
p1544
aV/Users/atsuya/.pyenv/versions/anaconda2-4.2.0/lib/python2.7/site-packages/matplotlib/mpl-data/fonts/afm/phvlo8a.afm
p1545
aV/Users/atsuya/.pyenv/versions/anaconda2-4.2.0/lib/python2.7/site-packages/matplotlib/mpl-data/fonts/afm/pncb8a.afm
p1546
aV/Users/atsuya/.pyenv/versions/anaconda2-4.2.0/lib/python2.7/site-packages/matplotlib/mpl-data/fonts/pdfcorefonts/Courier-Bold.afm
p1547
aV/Users/atsuya/.pyenv/versions/anaconda2-4.2.0/lib/python2.7/site-packages/matplotlib/mpl-data/fonts/afm/pncbi8a.afm
p1548
aV/Users/atsuya/.pyenv/versions/anaconda2-4.2.0/lib/python2.7/site-packages/matplotlib/mpl-data/fonts/afm/pplri8a.afm
p1549
aV/Users/atsuya/.pyenv/versions/anaconda2-4.2.0/lib/python2.7/site-packages/matplotlib/mpl-data/fonts/afm/pbkli8a.afm
p1550
aV/Users/atsuya/.pyenv/versions/anaconda2-4.2.0/lib/python2.7/site-packages/matplotlib/mpl-data/fonts/pdfcorefonts/Courier-Oblique.afm
p1551
aV/Users/atsuya/.pyenv/versions/anaconda2-4.2.0/lib/python2.7/site-packages/matplotlib/mpl-data/fonts/afm/cmtt10.afm
p1552
aV/Users/atsuya/.pyenv/versions/anaconda2-4.2.0/lib/python2.7/site-packages/matplotlib/mpl-data/fonts/afm/putri8a.afm
p1553
aV/Users/atsuya/.pyenv/versions/anaconda2-4.2.0/lib/python2.7/site-packages/matplotlib/mpl-data/fonts/afm/pcrr8a.afm
p1554
aV/Users/atsuya/.pyenv/versions/anaconda2-4.2.0/lib/python2.7/site-packages/matplotlib/mpl-data/fonts/afm/ptmr8a.afm
p1555
aV/Users/atsuya/.pyenv/versions/anaconda2-4.2.0/lib/python2.7/site-packages/matplotlib/mpl-data/fonts/afm/psyr.afm
p1556
aV/Users/atsuya/.pyenv/versions/anaconda2-4.2.0/lib/python2.7/site-packages/matplotlib/mpl-data/fonts/afm/pcrro8a.afm
p1557
aV/Users/atsuya/.pyenv/versions/anaconda2-4.2.0/lib/python2.7/site-packages/matplotlib/mpl-data/fonts/afm/pzcmi8a.afm
p1558
aV/Users/atsuya/.pyenv/versions/anaconda2-4.2.0/lib/python2.7/site-packages/matplotlib/mpl-data/fonts/afm/phvro8a.afm
p1559
aV/Users/atsuya/.pyenv/versions/anaconda2-4.2.0/lib/python2.7/site-packages/matplotlib/mpl-data/fonts/pdfcorefonts/Helvetica.afm
p1560
aV/Users/atsuya/.pyenv/versions/anaconda2-4.2.0/lib/python2.7/site-packages/matplotlib/mpl-data/fonts/afm/pplr8a.afm
p1561
aV/Users/atsuya/.pyenv/versions/anaconda2-4.2.0/lib/python2.7/site-packages/matplotlib/mpl-data/fonts/afm/pcrb8a.afm
p1562
aV/Users/atsuya/.pyenv/versions/anaconda2-4.2.0/lib/python2.7/site-packages/matplotlib/mpl-data/fonts/afm/phvbo8an.afm
p1563
aV/Users/atsuya/.pyenv/versions/anaconda2-4.2.0/lib/python2.7/site-packages/matplotlib/mpl-data/fonts/afm/cmr10.afm
p1564
aV/Users/atsuya/.pyenv/versions/anaconda2-4.2.0/lib/python2.7/site-packages/matplotlib/mpl-data/fonts/afm/phvbo8a.afm
p1565
aV/Users/atsuya/.pyenv/versions/anaconda2-4.2.0/lib/python2.7/site-packages/matplotlib/mpl-data/fonts/afm/pbkl8a.afm
p1566
aV/Users/atsuya/.pyenv/versions/anaconda2-4.2.0/lib/python2.7/site-packages/matplotlib/mpl-data/fonts/afm/pagdo8a.afm
p1567
aV/Users/atsuya/.pyenv/versions/anaconda2-4.2.0/lib/python2.7/site-packages/matplotlib/mpl-data/fonts/pdfcorefonts/Times-BoldItalic.afm
p1568
aV/Users/atsuya/.pyenv/versions/anaconda2-4.2.0/lib/python2.7/site-packages/matplotlib/mpl-data/fonts/afm/cmmi10.afm
p1569
aV/Users/atsuya/.pyenv/versions/anaconda2-4.2.0/lib/python2.7/site-packages/matplotlib/mpl-data/fonts/pdfcorefonts/Helvetica-Bold.afm
p1570
aV/Users/atsuya/.pyenv/versions/anaconda2-4.2.0/lib/python2.7/site-packages/matplotlib/mpl-data/fonts/pdfcorefonts/Helvetica-Oblique.afm
p1571
aV/Users/atsuya/.pyenv/versions/anaconda2-4.2.0/lib/python2.7/site-packages/matplotlib/mpl-data/fonts/afm/ptmri8a.afm
p1572
aV/Users/atsuya/.pyenv/versions/anaconda2-4.2.0/lib/python2.7/site-packages/matplotlib/mpl-data/fonts/afm/cmsy10.afm
p1573
aV/Users/atsuya/.pyenv/versions/anaconda2-4.2.0/lib/python2.7/site-packages/matplotlib/mpl-data/fonts/afm/phvl8a.afm
p1574
aV/Users/atsuya/.pyenv/versions/anaconda2-4.2.0/lib/python2.7/site-packages/matplotlib/mpl-data/fonts/afm/putbi8a.afm
p1575
aV/Users/atsuya/.pyenv/versions/anaconda2-4.2.0/lib/python2.7/site-packages/matplotlib/mpl-data/fonts/afm/putr8a.afm
p1576
aV/Users/atsuya/.pyenv/versions/anaconda2-4.2.0/lib/python2.7/site-packages/matplotlib/mpl-data/fonts/afm/ptmb8a.afm
p1577
aV/Users/atsuya/.pyenv/versions/anaconda2-4.2.0/lib/python2.7/site-packages/matplotlib/mpl-data/fonts/afm/pagd8a.afm
p1578
aV/Users/atsuya/.pyenv/versions/anaconda2-4.2.0/lib/python2.7/site-packages/matplotlib/mpl-data/fonts/afm/ptmbi8a.afm
p1579
aV/Users/atsuya/.pyenv/versions/anaconda2-4.2.0/lib/python2.7/site-packages/matplotlib/mpl-data/fonts/pdfcorefonts/Times-Italic.afm
p1580
aV/Users/atsuya/.pyenv/versions/anaconda2-4.2.0/lib/python2.7/site-packages/matplotlib/mpl-data/fonts/afm/putb8a.afm
p1581
aV/Users/atsuya/.pyenv/versions/anaconda2-4.2.0/lib/python2.7/site-packages/matplotlib/mpl-data/fonts/afm/cmex10.afm
p1582
aV/Users/atsuya/.pyenv/versions/anaconda2-4.2.0/lib/python2.7/site-packages/matplotlib/mpl-data/fonts/afm/phvb8a.afm
p1583
aV/Users/atsuya/.pyenv/versions/anaconda2-4.2.0/lib/python2.7/site-packages/matplotlib/mpl-data/fonts/afm/pncr8a.afm
p1584
aV/Users/atsuya/.pyenv/versions/anaconda2-4.2.0/lib/python2.7/site-packages/matplotlib/mpl-data/fonts/pdfcorefonts/Helvetica-BoldOblique.afm
p1585
aV/Users/atsuya/.pyenv/versions/anaconda2-4.2.0/lib/python2.7/site-packages/matplotlib/mpl-data/fonts/afm/pncri8a.afm
p1586
aV/Users/atsuya/.pyenv/versions/anaconda2-4.2.0/lib/python2.7/site-packages/matplotlib/mpl-data/fonts/afm/pagk8a.afm
p1587
aV/Users/atsuya/.pyenv/versions/anaconda2-4.2.0/lib/python2.7/site-packages/matplotlib/mpl-data/fonts/afm/pagko8a.afm
p1588
aV/Users/atsuya/.pyenv/versions/anaconda2-4.2.0/lib/python2.7/site-packages/matplotlib/mpl-data/fonts/pdfcorefonts/Times-Roman.afm
p1589
aV/Users/atsuya/.pyenv/versions/anaconda2-4.2.0/lib/python2.7/site-packages/matplotlib/mpl-data/fonts/afm/phvr8a.afm
p1590
aV/Users/atsuya/.pyenv/versions/anaconda2-4.2.0/lib/python2.7/site-packages/matplotlib/mpl-data/fonts/afm/pzdr.afm
p1591
aV/Users/atsuya/.pyenv/versions/anaconda2-4.2.0/lib/python2.7/site-packages/matplotlib/mpl-data/fonts/pdfcorefonts/Courier-BoldOblique.afm
p1592
aV/Users/atsuya/.pyenv/versions/anaconda2-4.2.0/lib/python2.7/site-packages/matplotlib/mpl-data/fonts/afm/phvr8an.afm
p1593
aV/Users/atsuya/.pyenv/versions/anaconda2-4.2.0/lib/python2.7/site-packages/matplotlib/mpl-data/fonts/pdfcorefonts/Times-Bold.afm
p1594
aV/Users/atsuya/.pyenv/versions/anaconda2-4.2.0/lib/python2.7/site-packages/matplotlib/mpl-data/fonts/afm/pplb8a.afm
p1595
aV/Users/atsuya/.pyenv/versions/anaconda2-4.2.0/lib/python2.7/site-packages/matplotlib/mpl-data/fonts/pdfcorefonts/Symbol.afm
p1596
aV/Users/atsuya/.pyenv/versions/anaconda2-4.2.0/lib/python2.7/site-packages/matplotlib/mpl-data/fonts/afm/phvro8an.afm
p1597
aV/Users/atsuya/.pyenv/versions/anaconda2-4.2.0/lib/python2.7/site-packages/matplotlib/mpl-data/fonts/pdfcorefonts/ZapfDingbats.afm
p1598
aV/Users/atsuya/.pyenv/versions/anaconda2-4.2.0/lib/python2.7/site-packages/matplotlib/mpl-data/fonts/pdfcorefonts/Courier.afm
p1599
aV/Users/atsuya/.pyenv/versions/anaconda2-4.2.0/lib/python2.7/site-packages/matplotlib/mpl-data/fonts/afm/pbkd8a.afm
p1600
aV/Users/atsuya/.pyenv/versions/anaconda2-4.2.0/lib/python2.7/site-packages/matplotlib/mpl-data/fonts/afm/pplbi8a.afm
p1601
aV/Users/atsuya/.pyenv/versions/anaconda2-4.2.0/lib/python2.7/site-packages/matplotlib/mpl-data/fonts/afm/pcrbo8a.afm
p1602
asS'afmlist'
p1603
(lp1604
g1
(g8
g3
NtRp1605
(dp1606
g11
Vitalic
p1607
sg13
S'ITC Bookman'
p1608
sg15
I600
sg16
Vnormal
p1609
sg17
g1609
sg18
g1541
sg20
Vscalable
p1610
sbag1
(g8
g3
NtRp1611
(dp1612
g11
g1609
sg13
S'Helvetica'
p1613
sg15
I700
sg16
Vcondensed
p1614
sg17
g1609
sg18
g1544
sg20
g1610
sbag1
(g8
g3
NtRp1615
(dp1616
g11
g1607
sg13
S'Helvetica'
p1617
sg15
I200
sg16
g1609
sg17
g1609
sg18
g1545
sg20
g1610
sbag1
(g8
g3
NtRp1618
(dp1619
g11
g1609
sg13
S'New Century Schoolbook'
p1620
sg15
I700
sg16
g1609
sg17
g1609
sg18
g1546
sg20
g1610
sbag1
(g8
g3
NtRp1621
(dp1622
g11
g1609
sg13
S'Courier'
p1623
sg15
I700
sg16
g1609
sg17
g1609
sg18
g1547
sg20
g1610
sbag1
(g8
g3
NtRp1624
(dp1625
g11
g1607
sg13
S'New Century Schoolbook'
p1626
sg15
I700
sg16
g1609
sg17
g1609
sg18
g1548
sg20
g1610
sbag1
(g8
g3
NtRp1627
(dp1628
g11
g1607
sg13
S'Palatino'
p1629
sg15
I500
sg16
g1609
sg17
g1609
sg18
g1549
sg20
g1610
sbag1
(g8
g3
NtRp1630
(dp1631
g11
g1607
sg13
S'ITC Bookman'
p1632
sg15
I200
sg16
g1609
sg17
g1609
sg18
g1550
sg20
g1610
sbag1
(g8
g3
NtRp1633
(dp1634
g11
g1607
sg13
S'Courier'
p1635
sg15
I500
sg16
g1609
sg17
g1609
sg18
g1551
sg20
g1610
sbag1
(g8
g3
NtRp1636
(dp1637
g11
g1609
sg13
S'Computer Modern'
p1638
sg15
I500
sg16
g1609
sg17
g1609
sg18
g1552
sg20
g1610
sbag1
(g8
g3
NtRp1639
(dp1640
g11
g1607
sg13
S'Utopia'
p1641
sg15
I400
sg16
g1609
sg17
g1609
sg18
g1553
sg20
g1610
sbag1
(g8
g3
NtRp1642
(dp1643
g11
g1609
sg13
S'Courier'
p1644
sg15
I500
sg16
g1609
sg17
g1609
sg18
g1554
sg20
g1610
sbag1
(g8
g3
NtRp1645
(dp1646
g11
g1609
sg13
S'Times'
p1647
sg15
I500
sg16
g1609
sg17
g1609
sg18
g1555
sg20
g1610
sbag1
(g8
g3
NtRp1648
(dp1649
g11
g1609
sg13
S'Symbol'
p1650
sg15
I500
sg16
g1609
sg17
g1609
sg18
g1556
sg20
g1610
sbag1
(g8
g3
NtRp1651
(dp1652
g11
g1607
sg13
S'Courier'
p1653
sg15
I500
sg16
g1609
sg17
g1609
sg18
g1557
sg20
g1610
sbag1
(g8
g3
NtRp1654
(dp1655
g11
g1607
sg13
S'ITC Zapf Chancery'
p1656
sg15
I500
sg16
g1609
sg17
g1609
sg18
g1558
sg20
g1610
sbag1
(g8
g3
NtRp1657
(dp1658
g11
g1607
sg13
S'Helvetica'
p1659
sg15
I500
sg16
g1609
sg17
g1609
sg18
g1559
sg20
g1610
sbag1
(g8
g3
NtRp1660
(dp1661
g11
g1609
sg13
S'Helvetica'
p1662
sg15
I500
sg16
g1609
sg17
g1609
sg18
g1560
sg20
g1610
sbag1
(g8
g3
NtRp1663
(dp1664
g11
g1609
sg13
S'Palatino'
p1665
sg15
I500
sg16
g1609
sg17
g1609
sg18
g1561
sg20
g1610
sbag1
(g8
g3
NtRp1666
(dp1667
g11
g1609
sg13
S'Courier'
p1668
sg15
I700
sg16
g1609
sg17
g1609
sg18
g1562
sg20
g1610
sbag1
(g8
g3
NtRp1669
(dp1670
g11
g1607
sg13
S'Helvetica'
p1671
sg15
I700
sg16
g1614
sg17
g1609
sg18
g1563
sg20
g1610
sbag1
(g8
g3
NtRp1672
(dp1673
g11
g1609
sg13
S'Computer Modern'
p1674
sg15
I500
sg16
g1609
sg17
g1609
sg18
g1564
sg20
g1610
sbag1
(g8
g3
NtRp1675
(dp1676
g11
g1607
sg13
S'Helvetica'
p1677
sg15
I700
sg16
g1609
sg17
g1609
sg18
g1565
sg20
g1610
sbag1
(g8
g3
NtRp1678
(dp1679
g11
g1609
sg13
S'ITC Bookman'
p1680
sg15
I200
sg16
g1609
sg17
g1609
sg18
g1566
sg20
g1610
sbag1
(g8
g3
NtRp1681
(dp1682
g11
g1607
sg13
S'ITC Avant Garde Gothic'
p1683
sg15
I600
sg16
g1609
sg17
g1609
sg18
g1567
sg20
g1610
sbag1
(g8
g3
NtRp1684
(dp1685
g11
g1607
sg13
S'Times'
p1686
sg15
I700
sg16
g1609
sg17
g1609
sg18
g1568
sg20
g1610
sbag1
(g8
g3
NtRp1687
(dp1688
g11
g1607
sg13
S'Computer Modern'
p1689
sg15
I500
sg16
g1609
sg17
g1609
sg18
g1569
sg20
g1610
sbag1
(g8
g3
NtRp1690
(dp1691
g11
g1609
sg13
S'Helvetica'
p1692
sg15
I700
sg16
g1609
sg17
g1609
sg18
g1570
sg20
g1610
sbag1
(g8
g3
NtRp1693
(dp1694
g11
g1607
sg13
S'Helvetica'
p1695
sg15
I500
sg16
g1609
sg17
g1609
sg18
g1571
sg20
g1610
sbag1
(g8
g3
NtRp1696
(dp1697
g11
g1607
sg13
S'Times'
p1698
sg15
I500
sg16
g1609
sg17
g1609
sg18
g1572
sg20
g1610
sbag1
(g8
g3
NtRp1699
(dp1700
g11
g1607
sg13
S'Computer Modern'
p1701
sg15
I500
sg16
g1609
sg17
g1609
sg18
g1573
sg20
g1610
sbag1
(g8
g3
NtRp1702
(dp1703
g11
g1609
sg13
S'Helvetica'
p1704
sg15
I200
sg16
g1609
sg17
g1609
sg18
g1574
sg20
g1610
sbag1
(g8
g3
NtRp1705
(dp1706
g11
g1607
sg13
S'Utopia'
p1707
sg15
I700
sg16
g1609
sg17
g1609
sg18
g1575
sg20
g1610
sbag1
(g8
g3
NtRp1708
(dp1709
g11
g1609
sg13
S'Utopia'
p1710
sg15
I400
sg16
g1609
sg17
g1609
sg18
g1576
sg20
g1610
sbag1
(g8
g3
NtRp1711
(dp1712
g11
g1609
sg13
S'Times'
p1713
sg15
I700
sg16
g1609
sg17
g1609
sg18
g1577
sg20
g1610
sbag1
(g8
g3
NtRp1714
(dp1715
g11
g1609
sg13
S'ITC Avant Garde Gothic'
p1716
sg15
I600
sg16
g1609
sg17
g1609
sg18
g1578
sg20
g1610
sbag1
(g8
g3
NtRp1717
(dp1718
g11
g1607
sg13
S'Times'
p1719
sg15
I700
sg16
g1609
sg17
g1609
sg18
g1579
sg20
g1610
sbag1
(g8
g3
NtRp1720
(dp1721
g11
g1607
sg13
S'Times'
p1722
sg15
I500
sg16
g1609
sg17
g1609
sg18
g1580
sg20
g1610
sbag1
(g8
g3
NtRp1723
(dp1724
g11
g1609
sg13
S'Utopia'
p1725
sg15
I700
sg16
g1609
sg17
g1609
sg18
g1581
sg20
g1610
sbag1
(g8
g3
NtRp1726
(dp1727
g11
g1609
sg13
S'Computer Modern'
p1728
sg15
I500
sg16
g1609
sg17
g1609
sg18
g1582
sg20
g1610
sbag1
(g8
g3
NtRp1729
(dp1730
g11
g1609
sg13
S'Helvetica'
p1731
sg15
I700
sg16
g1609
sg17
g1609
sg18
g1583
sg20
g1610
sbag1
(g8
g3
NtRp1732
(dp1733
g11
g1609
sg13
S'New Century Schoolbook'
p1734
sg15
I500
sg16
g1609
sg17
g1609
sg18
g1584
sg20
g1610
sbag1
(g8
g3
NtRp1735
(dp1736
g11
g1607
sg13
S'Helvetica'
p1737
sg15
I700
sg16
g1609
sg17
g1609
sg18
g1585
sg20
g1610
sbag1
(g8
g3
NtRp1738
(dp1739
g11
g1607
sg13
S'New Century Schoolbook'
p1740
sg15
I500
sg16
g1609
sg17
g1609
sg18
g1586
sg20
g1610
sbag1
(g8
g3
NtRp1741
(dp1742
g11
g1609
sg13
S'ITC Avant Garde Gothic'
p1743
sg15
I400
sg16
g1609
sg17
g1609
sg18
g1587
sg20
g1610
sbag1
(g8
g3
NtRp1744
(dp1745
g11
g1607
sg13
S'ITC Avant Garde Gothic'
p1746
sg15
I400
sg16
g1609
sg17
g1609
sg18
g1588
sg20
g1610
sbag1
(g8
g3
NtRp1747
(dp1748
g11
g1609
sg13
S'Times'
p1749
sg15
I500
sg16
g1609
sg17
g1609
sg18
g1589
sg20
g1610
sbag1
(g8
g3
NtRp1750
(dp1751
g11
g1609
sg13
S'Helvetica'
p1752
sg15
I500
sg16
g1609
sg17
g1609
sg18
g1590
sg20
g1610
sbag1
(g8
g3
NtRp1753
(dp1754
g11
g1609
sg13
S'ITC Zapf Dingbats'
p1755
sg15
I500
sg16
g1609
sg17
g1609
sg18
g1591
sg20
g1610
sbag1
(g8
g3
NtRp1756
(dp1757
g11
g1607
sg13
S'Courier'
p1758
sg15
I700
sg16
g1609
sg17
g1609
sg18
g1592
sg20
g1610
sbag1
(g8
g3
NtRp1759
(dp1760
g11
g1609
sg13
S'Helvetica'
p1761
sg15
I500
sg16
g1614
sg17
g1609
sg18
g1593
sg20
g1610
sbag1
(g8
g3
NtRp1762
(dp1763
g11
g1609
sg13
S'Times'
p1764
sg15
I700
sg16
g1609
sg17
g1609
sg18
g1594
sg20
g1610
sbag1
(g8
g3
NtRp1765
(dp1766
g11
g1609
sg13
S'Palatino'
p1767
sg15
I700
sg16
g1609
sg17
g1609
sg18
g1595
sg20
g1610
sbag1
(g8
g3
NtRp1768
(dp1769
g11
g1609
sg13
S'Symbol'
p1770
sg15
I500
sg16
g1609
sg17
g1609
sg18
g1596
sg20
g1610
sbag1
(g8
g3
NtRp1771
(dp1772
g11
g1607
sg13
S'Helvetica'
p1773
sg15
I500
sg16
g1614
sg17
g1609
sg18
g1597
sg20
g1610
sbag1
(g8
g3
NtRp1774
(dp1775
g11
g1609
sg13
S'ZapfDingbats'
p1776
sg15
I500
sg16
g1609
sg17
g1609
sg18
g1598
sg20
g1610
sbag1
(g8
g3
NtRp1777
(dp1778
g11
g1609
sg13
S'Courier'
p1779
sg15
I500
sg16
g1609
sg17
g1609
sg18
g1599
sg20
g1610
sbag1
(g8
g3
NtRp1780
(dp1781
g11
g1609
sg13
S'ITC Bookman'
p1782
sg15
I600
sg16
g1609
sg17
g1609
sg18
g1600
sg20
g1610
sbag1
(g8
g3
NtRp1783
(dp1784
g11
g1607
sg13
S'Palatino'
p1785
sg15
I700
sg16
g1609
sg17
g1609
sg18
g1601
sg20
g1610
sbag1
(g8
g3
NtRp1786
(dp1787
g11
g1607
sg13
S'Courier'
p1788
sg15
I700
sg16
g1609
sg17
g1609
sg18
g1602
sg20
g1610
sbasb.